
swu166_project.elf:     file format elf32-avr

Sections:
Idx Name          Size      VMA       LMA       File off  Algn
  0 .data         00000086  00800100  00002a68  00002afc  2**0
                  CONTENTS, ALLOC, LOAD, DATA
  1 .text         00002a68  00000000  00000000  00000094  2**1
                  CONTENTS, ALLOC, LOAD, READONLY, CODE
  2 .bss          00000037  00800186  00800186  00002b82  2**0
                  ALLOC
  3 .comment      00000030  00000000  00000000  00002b82  2**0
                  CONTENTS, READONLY
  4 .note.gnu.avr.deviceinfo 00000040  00000000  00000000  00002bb4  2**2
                  CONTENTS, READONLY
  5 .debug_aranges 000001a8  00000000  00000000  00002bf4  2**0
                  CONTENTS, READONLY, DEBUGGING
  6 .debug_info   00001472  00000000  00000000  00002d9c  2**0
                  CONTENTS, READONLY, DEBUGGING
  7 .debug_abbrev 00000969  00000000  00000000  0000420e  2**0
                  CONTENTS, READONLY, DEBUGGING
  8 .debug_line   00001390  00000000  00000000  00004b77  2**0
                  CONTENTS, READONLY, DEBUGGING
  9 .debug_frame  0000086c  00000000  00000000  00005f08  2**2
                  CONTENTS, READONLY, DEBUGGING
 10 .debug_str    00000818  00000000  00000000  00006774  2**0
                  CONTENTS, READONLY, DEBUGGING
 11 .debug_loc    0000129c  00000000  00000000  00006f8c  2**0
                  CONTENTS, READONLY, DEBUGGING
 12 .debug_ranges 00000198  00000000  00000000  00008228  2**0
                  CONTENTS, READONLY, DEBUGGING

Disassembly of section .text:

00000000 <__vectors>:
       0:	92 c0       	rjmp	.+292    	; 0x126 <__ctors_end>
       2:	00 00       	nop
       4:	af c0       	rjmp	.+350    	; 0x164 <__bad_interrupt>
       6:	00 00       	nop
       8:	ad c0       	rjmp	.+346    	; 0x164 <__bad_interrupt>
       a:	00 00       	nop
       c:	ab c0       	rjmp	.+342    	; 0x164 <__bad_interrupt>
       e:	00 00       	nop
      10:	a9 c0       	rjmp	.+338    	; 0x164 <__bad_interrupt>
      12:	00 00       	nop
      14:	a7 c0       	rjmp	.+334    	; 0x164 <__bad_interrupt>
      16:	00 00       	nop
      18:	a5 c0       	rjmp	.+330    	; 0x164 <__bad_interrupt>
      1a:	00 00       	nop
      1c:	a3 c0       	rjmp	.+326    	; 0x164 <__bad_interrupt>
      1e:	00 00       	nop
      20:	a1 c0       	rjmp	.+322    	; 0x164 <__bad_interrupt>
      22:	00 00       	nop
      24:	9f c0       	rjmp	.+318    	; 0x164 <__bad_interrupt>
      26:	00 00       	nop
      28:	9d c0       	rjmp	.+314    	; 0x164 <__bad_interrupt>
      2a:	00 00       	nop
      2c:	9b c0       	rjmp	.+310    	; 0x164 <__bad_interrupt>
      2e:	00 00       	nop
      30:	99 c0       	rjmp	.+306    	; 0x164 <__bad_interrupt>
      32:	00 00       	nop
      34:	1d c3       	rjmp	.+1594   	; 0x670 <__vector_13>
      36:	00 00       	nop
      38:	95 c0       	rjmp	.+298    	; 0x164 <__bad_interrupt>
      3a:	00 00       	nop
      3c:	93 c0       	rjmp	.+294    	; 0x164 <__bad_interrupt>
      3e:	00 00       	nop
      40:	91 c0       	rjmp	.+290    	; 0x164 <__bad_interrupt>
      42:	00 00       	nop
      44:	8f c0       	rjmp	.+286    	; 0x164 <__bad_interrupt>
      46:	00 00       	nop
      48:	8d c0       	rjmp	.+282    	; 0x164 <__bad_interrupt>
      4a:	00 00       	nop
      4c:	8b c0       	rjmp	.+278    	; 0x164 <__bad_interrupt>
      4e:	00 00       	nop
      50:	89 c0       	rjmp	.+274    	; 0x164 <__bad_interrupt>
      52:	00 00       	nop
      54:	87 c0       	rjmp	.+270    	; 0x164 <__bad_interrupt>
      56:	00 00       	nop
      58:	85 c0       	rjmp	.+266    	; 0x164 <__bad_interrupt>
      5a:	00 00       	nop
      5c:	83 c0       	rjmp	.+262    	; 0x164 <__bad_interrupt>
      5e:	00 00       	nop
      60:	81 c0       	rjmp	.+258    	; 0x164 <__bad_interrupt>
      62:	00 00       	nop
      64:	7f c0       	rjmp	.+254    	; 0x164 <__bad_interrupt>
      66:	00 00       	nop
      68:	7d c0       	rjmp	.+250    	; 0x164 <__bad_interrupt>
      6a:	00 00       	nop
      6c:	7b c0       	rjmp	.+246    	; 0x164 <__bad_interrupt>
      6e:	00 00       	nop
      70:	79 c0       	rjmp	.+242    	; 0x164 <__bad_interrupt>
      72:	00 00       	nop
      74:	77 c0       	rjmp	.+238    	; 0x164 <__bad_interrupt>
      76:	00 00       	nop
      78:	75 c0       	rjmp	.+234    	; 0x164 <__bad_interrupt>
      7a:	00 00       	nop
      7c:	73 c0       	rjmp	.+230    	; 0x164 <__bad_interrupt>
      7e:	00 00       	nop
      80:	71 c0       	rjmp	.+226    	; 0x164 <__bad_interrupt>
      82:	00 00       	nop
      84:	6f c0       	rjmp	.+222    	; 0x164 <__bad_interrupt>
      86:	00 00       	nop
      88:	6d c0       	rjmp	.+218    	; 0x164 <__bad_interrupt>
      8a:	00 00       	nop
      8c:	c8 07       	cpc	r28, r24
      8e:	8e 07       	cpc	r24, r30
      90:	93 07       	cpc	r25, r19
      92:	98 07       	cpc	r25, r24
      94:	9d 07       	cpc	r25, r29
      96:	a2 07       	cpc	r26, r18
      98:	b4 07       	cpc	r27, r20
      9a:	b9 07       	cpc	r27, r25
      9c:	be 07       	cpc	r27, r30
      9e:	c3 07       	cpc	r28, r19
      a0:	c7 0a       	sbc	r12, r23
      a2:	d0 0a       	sbc	r13, r16
      a4:	d9 0a       	sbc	r13, r25
      a6:	e2 0a       	sbc	r14, r18
      a8:	eb 0a       	sbc	r14, r27
      aa:	f4 0a       	sbc	r15, r20
      ac:	fd 0a       	sbc	r15, r29
      ae:	06 0b       	sbc	r16, r22
      b0:	0f 0b       	sbc	r16, r31
      b2:	18 0b       	sbc	r17, r24
      b4:	2a 0b       	sbc	r18, r26
      b6:	2a 0b       	sbc	r18, r26
      b8:	2a 0b       	sbc	r18, r26
      ba:	2a 0b       	sbc	r18, r26
      bc:	2a 0b       	sbc	r18, r26
      be:	2a 0b       	sbc	r18, r26
      c0:	2a 0b       	sbc	r18, r26
      c2:	2a 0b       	sbc	r18, r26
      c4:	2a 0b       	sbc	r18, r26
      c6:	2a 0b       	sbc	r18, r26
      c8:	2a 0b       	sbc	r18, r26
      ca:	2a 0b       	sbc	r18, r26
      cc:	2a 0b       	sbc	r18, r26
      ce:	2a 0b       	sbc	r18, r26
      d0:	2a 0b       	sbc	r18, r26
      d2:	2a 0b       	sbc	r18, r26
      d4:	2a 0b       	sbc	r18, r26
      d6:	2a 0b       	sbc	r18, r26
      d8:	2a 0b       	sbc	r18, r26
      da:	2a 0b       	sbc	r18, r26
      dc:	2a 0b       	sbc	r18, r26
      de:	2a 0b       	sbc	r18, r26
      e0:	2a 0b       	sbc	r18, r26
      e2:	2a 0b       	sbc	r18, r26
      e4:	2a 0b       	sbc	r18, r26
      e6:	2a 0b       	sbc	r18, r26
      e8:	2a 0b       	sbc	r18, r26
      ea:	2a 0b       	sbc	r18, r26
      ec:	2a 0b       	sbc	r18, r26
      ee:	2a 0b       	sbc	r18, r26
      f0:	2a 0b       	sbc	r18, r26
      f2:	2a 0b       	sbc	r18, r26
      f4:	2a 0b       	sbc	r18, r26
      f6:	2a 0b       	sbc	r18, r26
      f8:	2a 0b       	sbc	r18, r26
      fa:	2a 0b       	sbc	r18, r26
      fc:	2a 0b       	sbc	r18, r26
      fe:	2a 0b       	sbc	r18, r26
     100:	2a 0b       	sbc	r18, r26
     102:	21 0b       	sbc	r18, r17
     104:	ee 0b       	sbc	r30, r30
     106:	1d 0c       	add	r1, r13
     108:	5c 0c       	add	r5, r12
     10a:	9b 0c       	add	r9, r11
     10c:	da 0c       	add	r13, r10
     10e:	19 0d       	add	r17, r9
     110:	58 0d       	add	r21, r8
     112:	97 0d       	add	r25, r7
     114:	d6 0d       	add	r29, r6
     116:	15 0e       	add	r1, r21
     118:	54 0e       	add	r5, r20
     11a:	93 0e       	add	r9, r19
     11c:	d2 0e       	add	r13, r18
     11e:	11 0f       	add	r17, r17
     120:	50 0f       	add	r21, r16
     122:	8f 0f       	add	r24, r31
     124:	ce 0f       	add	r28, r30

00000126 <__ctors_end>:
     126:	11 24       	eor	r1, r1
     128:	1f be       	out	0x3f, r1	; 63
     12a:	cf ef       	ldi	r28, 0xFF	; 255
     12c:	d0 e4       	ldi	r29, 0x40	; 64
     12e:	de bf       	out	0x3e, r29	; 62
     130:	cd bf       	out	0x3d, r28	; 61

00000132 <__do_copy_data>:
     132:	11 e0       	ldi	r17, 0x01	; 1
     134:	a0 e0       	ldi	r26, 0x00	; 0
     136:	b1 e0       	ldi	r27, 0x01	; 1
     138:	e8 e6       	ldi	r30, 0x68	; 104
     13a:	fa e2       	ldi	r31, 0x2A	; 42
     13c:	00 e0       	ldi	r16, 0x00	; 0
     13e:	0b bf       	out	0x3b, r16	; 59
     140:	02 c0       	rjmp	.+4      	; 0x146 <__do_copy_data+0x14>
     142:	07 90       	elpm	r0, Z+
     144:	0d 92       	st	X+, r0
     146:	a6 38       	cpi	r26, 0x86	; 134
     148:	b1 07       	cpc	r27, r17
     14a:	d9 f7       	brne	.-10     	; 0x142 <__do_copy_data+0x10>

0000014c <__do_clear_bss>:
     14c:	21 e0       	ldi	r18, 0x01	; 1
     14e:	a6 e8       	ldi	r26, 0x86	; 134
     150:	b1 e0       	ldi	r27, 0x01	; 1
     152:	01 c0       	rjmp	.+2      	; 0x156 <.do_clear_bss_start>

00000154 <.do_clear_bss_loop>:
     154:	1d 92       	st	X+, r1

00000156 <.do_clear_bss_start>:
     156:	ad 3b       	cpi	r26, 0xBD	; 189
     158:	b2 07       	cpc	r27, r18
     15a:	e1 f7       	brne	.-8      	; 0x154 <.do_clear_bss_loop>
     15c:	0e 94 b0 12 	call	0x2560	; 0x2560 <main>
     160:	0c 94 32 15 	jmp	0x2a64	; 0x2a64 <_exit>

00000164 <__bad_interrupt>:
     164:	4d cf       	rjmp	.-358    	; 0x0 <__vectors>

00000166 <LCD_ClearScreen>:
        case 4: return test[4];break;
        case 5: return test[5];break;
        case 6: return test[6];break;
        case 7: return test[7];break;
    }
}
     166:	cf 93       	push	r28
     168:	df 93       	push	r29
     16a:	cd b7       	in	r28, 0x3d	; 61
     16c:	de b7       	in	r29, 0x3e	; 62
     16e:	81 e0       	ldi	r24, 0x01	; 1
     170:	1a d0       	rcall	.+52     	; 0x1a6 <LCD_WriteCommand>
     172:	00 00       	nop
     174:	df 91       	pop	r29
     176:	cf 91       	pop	r28
     178:	08 95       	ret

0000017a <LCD_init>:
     17a:	cf 93       	push	r28
     17c:	df 93       	push	r29
     17e:	cd b7       	in	r28, 0x3d	; 61
     180:	de b7       	in	r29, 0x3e	; 62
     182:	84 e6       	ldi	r24, 0x64	; 100
     184:	90 e0       	ldi	r25, 0x00	; 0
     186:	a7 d0       	rcall	.+334    	; 0x2d6 <delay_ms>
     188:	88 e3       	ldi	r24, 0x38	; 56
     18a:	0d d0       	rcall	.+26     	; 0x1a6 <LCD_WriteCommand>
     18c:	86 e0       	ldi	r24, 0x06	; 6
     18e:	0b d0       	rcall	.+22     	; 0x1a6 <LCD_WriteCommand>
     190:	8f e0       	ldi	r24, 0x0F	; 15
     192:	09 d0       	rcall	.+18     	; 0x1a6 <LCD_WriteCommand>
     194:	81 e0       	ldi	r24, 0x01	; 1
     196:	07 d0       	rcall	.+14     	; 0x1a6 <LCD_WriteCommand>
     198:	8a e0       	ldi	r24, 0x0A	; 10
     19a:	90 e0       	ldi	r25, 0x00	; 0
     19c:	9c d0       	rcall	.+312    	; 0x2d6 <delay_ms>
     19e:	00 00       	nop
     1a0:	df 91       	pop	r29
     1a2:	cf 91       	pop	r28
     1a4:	08 95       	ret

000001a6 <LCD_WriteCommand>:
     1a6:	cf 93       	push	r28
     1a8:	df 93       	push	r29
     1aa:	1f 92       	push	r1
     1ac:	cd b7       	in	r28, 0x3d	; 61
     1ae:	de b7       	in	r29, 0x3e	; 62
     1b0:	89 83       	std	Y+1, r24	; 0x01
     1b2:	8b e2       	ldi	r24, 0x2B	; 43
     1b4:	90 e0       	ldi	r25, 0x00	; 0
     1b6:	2b e2       	ldi	r18, 0x2B	; 43
     1b8:	30 e0       	ldi	r19, 0x00	; 0
     1ba:	f9 01       	movw	r30, r18
     1bc:	20 81       	ld	r18, Z
     1be:	2f 7b       	andi	r18, 0xBF	; 191
     1c0:	fc 01       	movw	r30, r24
     1c2:	20 83       	st	Z, r18
     1c4:	88 e2       	ldi	r24, 0x28	; 40
     1c6:	90 e0       	ldi	r25, 0x00	; 0
     1c8:	29 81       	ldd	r18, Y+1	; 0x01
     1ca:	fc 01       	movw	r30, r24
     1cc:	20 83       	st	Z, r18
     1ce:	8b e2       	ldi	r24, 0x2B	; 43
     1d0:	90 e0       	ldi	r25, 0x00	; 0
     1d2:	2b e2       	ldi	r18, 0x2B	; 43
     1d4:	30 e0       	ldi	r19, 0x00	; 0
     1d6:	f9 01       	movw	r30, r18
     1d8:	20 81       	ld	r18, Z
     1da:	20 68       	ori	r18, 0x80	; 128
     1dc:	fc 01       	movw	r30, r24
     1de:	20 83       	st	Z, r18
     1e0:	8b e2       	ldi	r24, 0x2B	; 43
     1e2:	90 e0       	ldi	r25, 0x00	; 0
     1e4:	2b e2       	ldi	r18, 0x2B	; 43
     1e6:	30 e0       	ldi	r19, 0x00	; 0
     1e8:	f9 01       	movw	r30, r18
     1ea:	20 81       	ld	r18, Z
     1ec:	2f 77       	andi	r18, 0x7F	; 127
     1ee:	fc 01       	movw	r30, r24
     1f0:	20 83       	st	Z, r18
     1f2:	82 e0       	ldi	r24, 0x02	; 2
     1f4:	90 e0       	ldi	r25, 0x00	; 0
     1f6:	6f d0       	rcall	.+222    	; 0x2d6 <delay_ms>
     1f8:	00 00       	nop
     1fa:	0f 90       	pop	r0
     1fc:	df 91       	pop	r29
     1fe:	cf 91       	pop	r28
     200:	08 95       	ret

00000202 <LCD_WriteData>:
     202:	cf 93       	push	r28
     204:	df 93       	push	r29
     206:	1f 92       	push	r1
     208:	cd b7       	in	r28, 0x3d	; 61
     20a:	de b7       	in	r29, 0x3e	; 62
     20c:	89 83       	std	Y+1, r24	; 0x01
     20e:	8b e2       	ldi	r24, 0x2B	; 43
     210:	90 e0       	ldi	r25, 0x00	; 0
     212:	2b e2       	ldi	r18, 0x2B	; 43
     214:	30 e0       	ldi	r19, 0x00	; 0
     216:	f9 01       	movw	r30, r18
     218:	20 81       	ld	r18, Z
     21a:	20 64       	ori	r18, 0x40	; 64
     21c:	fc 01       	movw	r30, r24
     21e:	20 83       	st	Z, r18
     220:	88 e2       	ldi	r24, 0x28	; 40
     222:	90 e0       	ldi	r25, 0x00	; 0
     224:	29 81       	ldd	r18, Y+1	; 0x01
     226:	fc 01       	movw	r30, r24
     228:	20 83       	st	Z, r18
     22a:	8b e2       	ldi	r24, 0x2B	; 43
     22c:	90 e0       	ldi	r25, 0x00	; 0
     22e:	2b e2       	ldi	r18, 0x2B	; 43
     230:	30 e0       	ldi	r19, 0x00	; 0
     232:	f9 01       	movw	r30, r18
     234:	20 81       	ld	r18, Z
     236:	20 68       	ori	r18, 0x80	; 128
     238:	fc 01       	movw	r30, r24
     23a:	20 83       	st	Z, r18
     23c:	8b e2       	ldi	r24, 0x2B	; 43
     23e:	90 e0       	ldi	r25, 0x00	; 0
     240:	2b e2       	ldi	r18, 0x2B	; 43
     242:	30 e0       	ldi	r19, 0x00	; 0
     244:	f9 01       	movw	r30, r18
     246:	20 81       	ld	r18, Z
     248:	2f 77       	andi	r18, 0x7F	; 127
     24a:	fc 01       	movw	r30, r24
     24c:	20 83       	st	Z, r18
     24e:	00 00       	nop
     250:	0f 90       	pop	r0
     252:	df 91       	pop	r29
     254:	cf 91       	pop	r28
     256:	08 95       	ret

00000258 <LCD_DisplayString>:
     258:	cf 93       	push	r28
     25a:	df 93       	push	r29
     25c:	00 d0       	rcall	.+0      	; 0x25e <LCD_DisplayString+0x6>
     25e:	00 d0       	rcall	.+0      	; 0x260 <LCD_DisplayString+0x8>
     260:	cd b7       	in	r28, 0x3d	; 61
     262:	de b7       	in	r29, 0x3e	; 62
     264:	8a 83       	std	Y+2, r24	; 0x02
     266:	7c 83       	std	Y+4, r23	; 0x04
     268:	6b 83       	std	Y+3, r22	; 0x03
     26a:	7d df       	rcall	.-262    	; 0x166 <LCD_ClearScreen>
     26c:	8a 81       	ldd	r24, Y+2	; 0x02
     26e:	89 83       	std	Y+1, r24	; 0x01
     270:	0f c0       	rjmp	.+30     	; 0x290 <LCD_DisplayString+0x38>
     272:	89 81       	ldd	r24, Y+1	; 0x01
     274:	91 e0       	ldi	r25, 0x01	; 1
     276:	98 0f       	add	r25, r24
     278:	99 83       	std	Y+1, r25	; 0x01
     27a:	18 d0       	rcall	.+48     	; 0x2ac <LCD_Cursor>
     27c:	8b 81       	ldd	r24, Y+3	; 0x03
     27e:	9c 81       	ldd	r25, Y+4	; 0x04
     280:	9c 01       	movw	r18, r24
     282:	2f 5f       	subi	r18, 0xFF	; 255
     284:	3f 4f       	sbci	r19, 0xFF	; 255
     286:	3c 83       	std	Y+4, r19	; 0x04
     288:	2b 83       	std	Y+3, r18	; 0x03
     28a:	fc 01       	movw	r30, r24
     28c:	80 81       	ld	r24, Z
     28e:	b9 df       	rcall	.-142    	; 0x202 <LCD_WriteData>
     290:	8b 81       	ldd	r24, Y+3	; 0x03
     292:	9c 81       	ldd	r25, Y+4	; 0x04
     294:	fc 01       	movw	r30, r24
     296:	80 81       	ld	r24, Z
     298:	88 23       	and	r24, r24
     29a:	59 f7       	brne	.-42     	; 0x272 <LCD_DisplayString+0x1a>
     29c:	00 00       	nop
     29e:	0f 90       	pop	r0
     2a0:	0f 90       	pop	r0
     2a2:	0f 90       	pop	r0
     2a4:	0f 90       	pop	r0
     2a6:	df 91       	pop	r29
     2a8:	cf 91       	pop	r28
     2aa:	08 95       	ret

000002ac <LCD_Cursor>:
     2ac:	cf 93       	push	r28
     2ae:	df 93       	push	r29
     2b0:	1f 92       	push	r1
     2b2:	cd b7       	in	r28, 0x3d	; 61
     2b4:	de b7       	in	r29, 0x3e	; 62
     2b6:	89 83       	std	Y+1, r24	; 0x01
     2b8:	89 81       	ldd	r24, Y+1	; 0x01
     2ba:	81 31       	cpi	r24, 0x11	; 17
     2bc:	20 f4       	brcc	.+8      	; 0x2c6 <LCD_Cursor+0x1a>
     2be:	89 81       	ldd	r24, Y+1	; 0x01
     2c0:	81 58       	subi	r24, 0x81	; 129
     2c2:	71 df       	rcall	.-286    	; 0x1a6 <LCD_WriteCommand>
     2c4:	03 c0       	rjmp	.+6      	; 0x2cc <LCD_Cursor+0x20>
     2c6:	89 81       	ldd	r24, Y+1	; 0x01
     2c8:	81 55       	subi	r24, 0x51	; 81
     2ca:	6d df       	rcall	.-294    	; 0x1a6 <LCD_WriteCommand>
     2cc:	00 00       	nop
     2ce:	0f 90       	pop	r0
     2d0:	df 91       	pop	r29
     2d2:	cf 91       	pop	r28
     2d4:	08 95       	ret

000002d6 <delay_ms>:
     2d6:	cf 93       	push	r28
     2d8:	df 93       	push	r29
     2da:	00 d0       	rcall	.+0      	; 0x2dc <delay_ms+0x6>
     2dc:	00 d0       	rcall	.+0      	; 0x2de <delay_ms+0x8>
     2de:	00 d0       	rcall	.+0      	; 0x2e0 <delay_ms+0xa>
     2e0:	cd b7       	in	r28, 0x3d	; 61
     2e2:	de b7       	in	r29, 0x3e	; 62
     2e4:	9e 83       	std	Y+6, r25	; 0x06
     2e6:	8d 83       	std	Y+5, r24	; 0x05
     2e8:	1a 82       	std	Y+2, r1	; 0x02
     2ea:	19 82       	std	Y+1, r1	; 0x01
     2ec:	13 c0       	rjmp	.+38     	; 0x314 <delay_ms+0x3e>
     2ee:	1c 82       	std	Y+4, r1	; 0x04
     2f0:	1b 82       	std	Y+3, r1	; 0x03
     2f2:	06 c0       	rjmp	.+12     	; 0x300 <delay_ms+0x2a>
     2f4:	00 00       	nop
     2f6:	8b 81       	ldd	r24, Y+3	; 0x03
     2f8:	9c 81       	ldd	r25, Y+4	; 0x04
     2fa:	01 96       	adiw	r24, 0x01	; 1
     2fc:	9c 83       	std	Y+4, r25	; 0x04
     2fe:	8b 83       	std	Y+3, r24	; 0x03
     300:	8b 81       	ldd	r24, Y+3	; 0x03
     302:	9c 81       	ldd	r25, Y+4	; 0x04
     304:	87 30       	cpi	r24, 0x07	; 7
     306:	93 40       	sbci	r25, 0x03	; 3
     308:	ac f3       	brlt	.-22     	; 0x2f4 <delay_ms+0x1e>
     30a:	89 81       	ldd	r24, Y+1	; 0x01
     30c:	9a 81       	ldd	r25, Y+2	; 0x02
     30e:	01 96       	adiw	r24, 0x01	; 1
     310:	9a 83       	std	Y+2, r25	; 0x02
     312:	89 83       	std	Y+1, r24	; 0x01
     314:	29 81       	ldd	r18, Y+1	; 0x01
     316:	3a 81       	ldd	r19, Y+2	; 0x02
     318:	8d 81       	ldd	r24, Y+5	; 0x05
     31a:	9e 81       	ldd	r25, Y+6	; 0x06
     31c:	28 17       	cp	r18, r24
     31e:	39 07       	cpc	r19, r25
     320:	34 f3       	brlt	.-52     	; 0x2ee <delay_ms+0x18>
     322:	00 00       	nop
     324:	26 96       	adiw	r28, 0x06	; 6
     326:	0f b6       	in	r0, 0x3f	; 63
     328:	f8 94       	cli
     32a:	de bf       	out	0x3e, r29	; 62
     32c:	0f be       	out	0x3f, r0	; 63
     32e:	cd bf       	out	0x3d, r28	; 61
     330:	df 91       	pop	r29
     332:	cf 91       	pop	r28
     334:	08 95       	ret

00000336 <SetBit>:
     336:	cf 93       	push	r28
     338:	df 93       	push	r29
     33a:	00 d0       	rcall	.+0      	; 0x33c <SetBit+0x6>
     33c:	1f 92       	push	r1
     33e:	cd b7       	in	r28, 0x3d	; 61
     340:	de b7       	in	r29, 0x3e	; 62
     342:	89 83       	std	Y+1, r24	; 0x01
     344:	6a 83       	std	Y+2, r22	; 0x02
     346:	4b 83       	std	Y+3, r20	; 0x03
     348:	8b 81       	ldd	r24, Y+3	; 0x03
     34a:	88 23       	and	r24, r24
     34c:	71 f0       	breq	.+28     	; 0x36a <SetBit+0x34>
     34e:	8a 81       	ldd	r24, Y+2	; 0x02
     350:	28 2f       	mov	r18, r24
     352:	30 e0       	ldi	r19, 0x00	; 0
     354:	81 e0       	ldi	r24, 0x01	; 1
     356:	90 e0       	ldi	r25, 0x00	; 0
     358:	02 c0       	rjmp	.+4      	; 0x35e <SetBit+0x28>
     35a:	88 0f       	add	r24, r24
     35c:	99 1f       	adc	r25, r25
     35e:	2a 95       	dec	r18
     360:	e2 f7       	brpl	.-8      	; 0x35a <SetBit+0x24>
     362:	98 2f       	mov	r25, r24
     364:	89 81       	ldd	r24, Y+1	; 0x01
     366:	89 2b       	or	r24, r25
     368:	0e c0       	rjmp	.+28     	; 0x386 <SetBit+0x50>
     36a:	8a 81       	ldd	r24, Y+2	; 0x02
     36c:	28 2f       	mov	r18, r24
     36e:	30 e0       	ldi	r19, 0x00	; 0
     370:	81 e0       	ldi	r24, 0x01	; 1
     372:	90 e0       	ldi	r25, 0x00	; 0
     374:	02 c0       	rjmp	.+4      	; 0x37a <SetBit+0x44>
     376:	88 0f       	add	r24, r24
     378:	99 1f       	adc	r25, r25
     37a:	2a 95       	dec	r18
     37c:	e2 f7       	brpl	.-8      	; 0x376 <SetBit+0x40>
     37e:	98 2f       	mov	r25, r24
     380:	90 95       	com	r25
     382:	89 81       	ldd	r24, Y+1	; 0x01
     384:	89 23       	and	r24, r25
     386:	0f 90       	pop	r0
     388:	0f 90       	pop	r0
     38a:	0f 90       	pop	r0
     38c:	df 91       	pop	r29
     38e:	cf 91       	pop	r28
     390:	08 95       	ret

00000392 <GetBit>:
     392:	cf 93       	push	r28
     394:	df 93       	push	r29
     396:	00 d0       	rcall	.+0      	; 0x398 <GetBit+0x6>
     398:	cd b7       	in	r28, 0x3d	; 61
     39a:	de b7       	in	r29, 0x3e	; 62
     39c:	89 83       	std	Y+1, r24	; 0x01
     39e:	6a 83       	std	Y+2, r22	; 0x02
     3a0:	8a 81       	ldd	r24, Y+2	; 0x02
     3a2:	28 2f       	mov	r18, r24
     3a4:	30 e0       	ldi	r19, 0x00	; 0
     3a6:	81 e0       	ldi	r24, 0x01	; 1
     3a8:	90 e0       	ldi	r25, 0x00	; 0
     3aa:	02 c0       	rjmp	.+4      	; 0x3b0 <GetBit+0x1e>
     3ac:	88 0f       	add	r24, r24
     3ae:	99 1f       	adc	r25, r25
     3b0:	2a 95       	dec	r18
     3b2:	e2 f7       	brpl	.-8      	; 0x3ac <GetBit+0x1a>
     3b4:	98 2f       	mov	r25, r24
     3b6:	89 81       	ldd	r24, Y+1	; 0x01
     3b8:	89 23       	and	r24, r25
     3ba:	0f 90       	pop	r0
     3bc:	0f 90       	pop	r0
     3be:	df 91       	pop	r29
     3c0:	cf 91       	pop	r28
     3c2:	08 95       	ret

000003c4 <GetKeypadKey>:
     3c4:	0f 93       	push	r16
     3c6:	1f 93       	push	r17
     3c8:	cf 93       	push	r28
     3ca:	df 93       	push	r29
     3cc:	cd b7       	in	r28, 0x3d	; 61
     3ce:	de b7       	in	r29, 0x3e	; 62
     3d0:	02 e2       	ldi	r16, 0x22	; 34
     3d2:	10 e0       	ldi	r17, 0x00	; 0
     3d4:	40 e0       	ldi	r20, 0x00	; 0
     3d6:	64 e0       	ldi	r22, 0x04	; 4
     3d8:	8f ef       	ldi	r24, 0xFF	; 255
     3da:	ad df       	rcall	.-166    	; 0x336 <SetBit>
     3dc:	f8 01       	movw	r30, r16
     3de:	80 83       	st	Z, r24
     3e0:	00 00       	nop
     3e2:	80 e2       	ldi	r24, 0x20	; 32
     3e4:	90 e0       	ldi	r25, 0x00	; 0
     3e6:	fc 01       	movw	r30, r24
     3e8:	80 81       	ld	r24, Z
     3ea:	80 95       	com	r24
     3ec:	60 e0       	ldi	r22, 0x00	; 0
     3ee:	d1 df       	rcall	.-94     	; 0x392 <GetBit>
     3f0:	88 23       	and	r24, r24
     3f2:	11 f0       	breq	.+4      	; 0x3f8 <GetKeypadKey+0x34>
     3f4:	81 e3       	ldi	r24, 0x31	; 49
     3f6:	c1 c0       	rjmp	.+386    	; 0x57a <__LOCK_REGION_LENGTH__+0x17a>
     3f8:	80 e2       	ldi	r24, 0x20	; 32
     3fa:	90 e0       	ldi	r25, 0x00	; 0
     3fc:	fc 01       	movw	r30, r24
     3fe:	80 81       	ld	r24, Z
     400:	80 95       	com	r24
     402:	61 e0       	ldi	r22, 0x01	; 1
     404:	c6 df       	rcall	.-116    	; 0x392 <GetBit>
     406:	88 23       	and	r24, r24
     408:	11 f0       	breq	.+4      	; 0x40e <__LOCK_REGION_LENGTH__+0xe>
     40a:	84 e3       	ldi	r24, 0x34	; 52
     40c:	b6 c0       	rjmp	.+364    	; 0x57a <__LOCK_REGION_LENGTH__+0x17a>
     40e:	80 e2       	ldi	r24, 0x20	; 32
     410:	90 e0       	ldi	r25, 0x00	; 0
     412:	fc 01       	movw	r30, r24
     414:	80 81       	ld	r24, Z
     416:	80 95       	com	r24
     418:	62 e0       	ldi	r22, 0x02	; 2
     41a:	bb df       	rcall	.-138    	; 0x392 <GetBit>
     41c:	88 23       	and	r24, r24
     41e:	11 f0       	breq	.+4      	; 0x424 <__LOCK_REGION_LENGTH__+0x24>
     420:	87 e3       	ldi	r24, 0x37	; 55
     422:	ab c0       	rjmp	.+342    	; 0x57a <__LOCK_REGION_LENGTH__+0x17a>
     424:	80 e2       	ldi	r24, 0x20	; 32
     426:	90 e0       	ldi	r25, 0x00	; 0
     428:	fc 01       	movw	r30, r24
     42a:	80 81       	ld	r24, Z
     42c:	80 95       	com	r24
     42e:	63 e0       	ldi	r22, 0x03	; 3
     430:	b0 df       	rcall	.-160    	; 0x392 <GetBit>
     432:	88 23       	and	r24, r24
     434:	11 f0       	breq	.+4      	; 0x43a <__LOCK_REGION_LENGTH__+0x3a>
     436:	8a e2       	ldi	r24, 0x2A	; 42
     438:	a0 c0       	rjmp	.+320    	; 0x57a <__LOCK_REGION_LENGTH__+0x17a>
     43a:	02 e2       	ldi	r16, 0x22	; 34
     43c:	10 e0       	ldi	r17, 0x00	; 0
     43e:	40 e0       	ldi	r20, 0x00	; 0
     440:	65 e0       	ldi	r22, 0x05	; 5
     442:	8f ef       	ldi	r24, 0xFF	; 255
     444:	78 df       	rcall	.-272    	; 0x336 <SetBit>
     446:	f8 01       	movw	r30, r16
     448:	80 83       	st	Z, r24
     44a:	00 00       	nop
     44c:	80 e2       	ldi	r24, 0x20	; 32
     44e:	90 e0       	ldi	r25, 0x00	; 0
     450:	fc 01       	movw	r30, r24
     452:	80 81       	ld	r24, Z
     454:	80 95       	com	r24
     456:	60 e0       	ldi	r22, 0x00	; 0
     458:	9c df       	rcall	.-200    	; 0x392 <GetBit>
     45a:	88 23       	and	r24, r24
     45c:	11 f0       	breq	.+4      	; 0x462 <__LOCK_REGION_LENGTH__+0x62>
     45e:	82 e3       	ldi	r24, 0x32	; 50
     460:	8c c0       	rjmp	.+280    	; 0x57a <__LOCK_REGION_LENGTH__+0x17a>
     462:	80 e2       	ldi	r24, 0x20	; 32
     464:	90 e0       	ldi	r25, 0x00	; 0
     466:	fc 01       	movw	r30, r24
     468:	80 81       	ld	r24, Z
     46a:	80 95       	com	r24
     46c:	61 e0       	ldi	r22, 0x01	; 1
     46e:	91 df       	rcall	.-222    	; 0x392 <GetBit>
     470:	88 23       	and	r24, r24
     472:	11 f0       	breq	.+4      	; 0x478 <__LOCK_REGION_LENGTH__+0x78>
     474:	85 e3       	ldi	r24, 0x35	; 53
     476:	81 c0       	rjmp	.+258    	; 0x57a <__LOCK_REGION_LENGTH__+0x17a>
     478:	80 e2       	ldi	r24, 0x20	; 32
     47a:	90 e0       	ldi	r25, 0x00	; 0
     47c:	fc 01       	movw	r30, r24
     47e:	80 81       	ld	r24, Z
     480:	80 95       	com	r24
     482:	62 e0       	ldi	r22, 0x02	; 2
     484:	86 df       	rcall	.-244    	; 0x392 <GetBit>
     486:	88 23       	and	r24, r24
     488:	11 f0       	breq	.+4      	; 0x48e <__LOCK_REGION_LENGTH__+0x8e>
     48a:	88 e3       	ldi	r24, 0x38	; 56
     48c:	76 c0       	rjmp	.+236    	; 0x57a <__LOCK_REGION_LENGTH__+0x17a>
     48e:	80 e2       	ldi	r24, 0x20	; 32
     490:	90 e0       	ldi	r25, 0x00	; 0
     492:	fc 01       	movw	r30, r24
     494:	80 81       	ld	r24, Z
     496:	80 95       	com	r24
     498:	63 e0       	ldi	r22, 0x03	; 3
     49a:	7b df       	rcall	.-266    	; 0x392 <GetBit>
     49c:	88 23       	and	r24, r24
     49e:	11 f0       	breq	.+4      	; 0x4a4 <__LOCK_REGION_LENGTH__+0xa4>
     4a0:	80 e3       	ldi	r24, 0x30	; 48
     4a2:	6b c0       	rjmp	.+214    	; 0x57a <__LOCK_REGION_LENGTH__+0x17a>
     4a4:	02 e2       	ldi	r16, 0x22	; 34
     4a6:	10 e0       	ldi	r17, 0x00	; 0
     4a8:	40 e0       	ldi	r20, 0x00	; 0
     4aa:	66 e0       	ldi	r22, 0x06	; 6
     4ac:	8f ef       	ldi	r24, 0xFF	; 255
     4ae:	43 df       	rcall	.-378    	; 0x336 <SetBit>
     4b0:	f8 01       	movw	r30, r16
     4b2:	80 83       	st	Z, r24
     4b4:	00 00       	nop
     4b6:	80 e2       	ldi	r24, 0x20	; 32
     4b8:	90 e0       	ldi	r25, 0x00	; 0
     4ba:	fc 01       	movw	r30, r24
     4bc:	80 81       	ld	r24, Z
     4be:	80 95       	com	r24
     4c0:	60 e0       	ldi	r22, 0x00	; 0
     4c2:	67 df       	rcall	.-306    	; 0x392 <GetBit>
     4c4:	88 23       	and	r24, r24
     4c6:	11 f0       	breq	.+4      	; 0x4cc <__LOCK_REGION_LENGTH__+0xcc>
     4c8:	83 e3       	ldi	r24, 0x33	; 51
     4ca:	57 c0       	rjmp	.+174    	; 0x57a <__LOCK_REGION_LENGTH__+0x17a>
     4cc:	80 e2       	ldi	r24, 0x20	; 32
     4ce:	90 e0       	ldi	r25, 0x00	; 0
     4d0:	fc 01       	movw	r30, r24
     4d2:	80 81       	ld	r24, Z
     4d4:	80 95       	com	r24
     4d6:	61 e0       	ldi	r22, 0x01	; 1
     4d8:	5c df       	rcall	.-328    	; 0x392 <GetBit>
     4da:	88 23       	and	r24, r24
     4dc:	11 f0       	breq	.+4      	; 0x4e2 <__LOCK_REGION_LENGTH__+0xe2>
     4de:	86 e3       	ldi	r24, 0x36	; 54
     4e0:	4c c0       	rjmp	.+152    	; 0x57a <__LOCK_REGION_LENGTH__+0x17a>
     4e2:	80 e2       	ldi	r24, 0x20	; 32
     4e4:	90 e0       	ldi	r25, 0x00	; 0
     4e6:	fc 01       	movw	r30, r24
     4e8:	80 81       	ld	r24, Z
     4ea:	80 95       	com	r24
     4ec:	62 e0       	ldi	r22, 0x02	; 2
     4ee:	51 df       	rcall	.-350    	; 0x392 <GetBit>
     4f0:	88 23       	and	r24, r24
     4f2:	11 f0       	breq	.+4      	; 0x4f8 <__LOCK_REGION_LENGTH__+0xf8>
     4f4:	89 e3       	ldi	r24, 0x39	; 57
     4f6:	41 c0       	rjmp	.+130    	; 0x57a <__LOCK_REGION_LENGTH__+0x17a>
     4f8:	80 e2       	ldi	r24, 0x20	; 32
     4fa:	90 e0       	ldi	r25, 0x00	; 0
     4fc:	fc 01       	movw	r30, r24
     4fe:	80 81       	ld	r24, Z
     500:	80 95       	com	r24
     502:	63 e0       	ldi	r22, 0x03	; 3
     504:	46 df       	rcall	.-372    	; 0x392 <GetBit>
     506:	88 23       	and	r24, r24
     508:	11 f0       	breq	.+4      	; 0x50e <__LOCK_REGION_LENGTH__+0x10e>
     50a:	83 e2       	ldi	r24, 0x23	; 35
     50c:	36 c0       	rjmp	.+108    	; 0x57a <__LOCK_REGION_LENGTH__+0x17a>
     50e:	02 e2       	ldi	r16, 0x22	; 34
     510:	10 e0       	ldi	r17, 0x00	; 0
     512:	40 e0       	ldi	r20, 0x00	; 0
     514:	67 e0       	ldi	r22, 0x07	; 7
     516:	8f ef       	ldi	r24, 0xFF	; 255
     518:	0e df       	rcall	.-484    	; 0x336 <SetBit>
     51a:	f8 01       	movw	r30, r16
     51c:	80 83       	st	Z, r24
     51e:	00 00       	nop
     520:	80 e2       	ldi	r24, 0x20	; 32
     522:	90 e0       	ldi	r25, 0x00	; 0
     524:	fc 01       	movw	r30, r24
     526:	80 81       	ld	r24, Z
     528:	80 95       	com	r24
     52a:	60 e0       	ldi	r22, 0x00	; 0
     52c:	32 df       	rcall	.-412    	; 0x392 <GetBit>
     52e:	88 23       	and	r24, r24
     530:	11 f0       	breq	.+4      	; 0x536 <__LOCK_REGION_LENGTH__+0x136>
     532:	81 e4       	ldi	r24, 0x41	; 65
     534:	22 c0       	rjmp	.+68     	; 0x57a <__LOCK_REGION_LENGTH__+0x17a>
     536:	80 e2       	ldi	r24, 0x20	; 32
     538:	90 e0       	ldi	r25, 0x00	; 0
     53a:	fc 01       	movw	r30, r24
     53c:	80 81       	ld	r24, Z
     53e:	80 95       	com	r24
     540:	61 e0       	ldi	r22, 0x01	; 1
     542:	27 df       	rcall	.-434    	; 0x392 <GetBit>
     544:	88 23       	and	r24, r24
     546:	11 f0       	breq	.+4      	; 0x54c <__LOCK_REGION_LENGTH__+0x14c>
     548:	82 e4       	ldi	r24, 0x42	; 66
     54a:	17 c0       	rjmp	.+46     	; 0x57a <__LOCK_REGION_LENGTH__+0x17a>
     54c:	80 e2       	ldi	r24, 0x20	; 32
     54e:	90 e0       	ldi	r25, 0x00	; 0
     550:	fc 01       	movw	r30, r24
     552:	80 81       	ld	r24, Z
     554:	80 95       	com	r24
     556:	62 e0       	ldi	r22, 0x02	; 2
     558:	1c df       	rcall	.-456    	; 0x392 <GetBit>
     55a:	88 23       	and	r24, r24
     55c:	11 f0       	breq	.+4      	; 0x562 <__LOCK_REGION_LENGTH__+0x162>
     55e:	83 e4       	ldi	r24, 0x43	; 67
     560:	0c c0       	rjmp	.+24     	; 0x57a <__LOCK_REGION_LENGTH__+0x17a>
     562:	80 e2       	ldi	r24, 0x20	; 32
     564:	90 e0       	ldi	r25, 0x00	; 0
     566:	fc 01       	movw	r30, r24
     568:	80 81       	ld	r24, Z
     56a:	80 95       	com	r24
     56c:	63 e0       	ldi	r22, 0x03	; 3
     56e:	11 df       	rcall	.-478    	; 0x392 <GetBit>
     570:	88 23       	and	r24, r24
     572:	11 f0       	breq	.+4      	; 0x578 <__LOCK_REGION_LENGTH__+0x178>
     574:	84 e4       	ldi	r24, 0x44	; 68
     576:	01 c0       	rjmp	.+2      	; 0x57a <__LOCK_REGION_LENGTH__+0x17a>
     578:	80 e0       	ldi	r24, 0x00	; 0
     57a:	df 91       	pop	r29
     57c:	cf 91       	pop	r28
     57e:	1f 91       	pop	r17
     580:	0f 91       	pop	r16
     582:	08 95       	ret

00000584 <TimerSet>:
     584:	cf 93       	push	r28
     586:	df 93       	push	r29
     588:	00 d0       	rcall	.+0      	; 0x58a <TimerSet+0x6>
     58a:	00 d0       	rcall	.+0      	; 0x58c <TimerSet+0x8>
     58c:	cd b7       	in	r28, 0x3d	; 61
     58e:	de b7       	in	r29, 0x3e	; 62
     590:	69 83       	std	Y+1, r22	; 0x01
     592:	7a 83       	std	Y+2, r23	; 0x02
     594:	8b 83       	std	Y+3, r24	; 0x03
     596:	9c 83       	std	Y+4, r25	; 0x04
     598:	89 81       	ldd	r24, Y+1	; 0x01
     59a:	9a 81       	ldd	r25, Y+2	; 0x02
     59c:	ab 81       	ldd	r26, Y+3	; 0x03
     59e:	bc 81       	ldd	r27, Y+4	; 0x04
     5a0:	80 93 00 01 	sts	0x0100, r24	; 0x800100 <__data_start>
     5a4:	90 93 01 01 	sts	0x0101, r25	; 0x800101 <__data_start+0x1>
     5a8:	a0 93 02 01 	sts	0x0102, r26	; 0x800102 <__data_start+0x2>
     5ac:	b0 93 03 01 	sts	0x0103, r27	; 0x800103 <__data_start+0x3>
     5b0:	80 91 00 01 	lds	r24, 0x0100	; 0x800100 <__data_start>
     5b4:	90 91 01 01 	lds	r25, 0x0101	; 0x800101 <__data_start+0x1>
     5b8:	a0 91 02 01 	lds	r26, 0x0102	; 0x800102 <__data_start+0x2>
     5bc:	b0 91 03 01 	lds	r27, 0x0103	; 0x800103 <__data_start+0x3>
     5c0:	80 93 87 01 	sts	0x0187, r24	; 0x800187 <_avr_timer_cntcurr>
     5c4:	90 93 88 01 	sts	0x0188, r25	; 0x800188 <_avr_timer_cntcurr+0x1>
     5c8:	a0 93 89 01 	sts	0x0189, r26	; 0x800189 <_avr_timer_cntcurr+0x2>
     5cc:	b0 93 8a 01 	sts	0x018A, r27	; 0x80018a <_avr_timer_cntcurr+0x3>
     5d0:	00 00       	nop
     5d2:	0f 90       	pop	r0
     5d4:	0f 90       	pop	r0
     5d6:	0f 90       	pop	r0
     5d8:	0f 90       	pop	r0
     5da:	df 91       	pop	r29
     5dc:	cf 91       	pop	r28
     5de:	08 95       	ret

000005e0 <TimerOn>:
     5e0:	cf 93       	push	r28
     5e2:	df 93       	push	r29
     5e4:	cd b7       	in	r28, 0x3d	; 61
     5e6:	de b7       	in	r29, 0x3e	; 62
     5e8:	81 e8       	ldi	r24, 0x81	; 129
     5ea:	90 e0       	ldi	r25, 0x00	; 0
     5ec:	2b e0       	ldi	r18, 0x0B	; 11
     5ee:	fc 01       	movw	r30, r24
     5f0:	20 83       	st	Z, r18
     5f2:	88 e8       	ldi	r24, 0x88	; 136
     5f4:	90 e0       	ldi	r25, 0x00	; 0
     5f6:	2d e7       	ldi	r18, 0x7D	; 125
     5f8:	30 e0       	ldi	r19, 0x00	; 0
     5fa:	fc 01       	movw	r30, r24
     5fc:	31 83       	std	Z+1, r19	; 0x01
     5fe:	20 83       	st	Z, r18
     600:	8f e6       	ldi	r24, 0x6F	; 111
     602:	90 e0       	ldi	r25, 0x00	; 0
     604:	22 e0       	ldi	r18, 0x02	; 2
     606:	fc 01       	movw	r30, r24
     608:	20 83       	st	Z, r18
     60a:	84 e8       	ldi	r24, 0x84	; 132
     60c:	90 e0       	ldi	r25, 0x00	; 0
     60e:	fc 01       	movw	r30, r24
     610:	11 82       	std	Z+1, r1	; 0x01
     612:	10 82       	st	Z, r1
     614:	80 91 00 01 	lds	r24, 0x0100	; 0x800100 <__data_start>
     618:	90 91 01 01 	lds	r25, 0x0101	; 0x800101 <__data_start+0x1>
     61c:	a0 91 02 01 	lds	r26, 0x0102	; 0x800102 <__data_start+0x2>
     620:	b0 91 03 01 	lds	r27, 0x0103	; 0x800103 <__data_start+0x3>
     624:	80 93 87 01 	sts	0x0187, r24	; 0x800187 <_avr_timer_cntcurr>
     628:	90 93 88 01 	sts	0x0188, r25	; 0x800188 <_avr_timer_cntcurr+0x1>
     62c:	a0 93 89 01 	sts	0x0189, r26	; 0x800189 <_avr_timer_cntcurr+0x2>
     630:	b0 93 8a 01 	sts	0x018A, r27	; 0x80018a <_avr_timer_cntcurr+0x3>
     634:	8f e5       	ldi	r24, 0x5F	; 95
     636:	90 e0       	ldi	r25, 0x00	; 0
     638:	2f e5       	ldi	r18, 0x5F	; 95
     63a:	30 e0       	ldi	r19, 0x00	; 0
     63c:	f9 01       	movw	r30, r18
     63e:	20 81       	ld	r18, Z
     640:	20 68       	ori	r18, 0x80	; 128
     642:	fc 01       	movw	r30, r24
     644:	20 83       	st	Z, r18
     646:	00 00       	nop
     648:	df 91       	pop	r29
     64a:	cf 91       	pop	r28
     64c:	08 95       	ret

0000064e <TimerISR>:
     64e:	cf 93       	push	r28
     650:	df 93       	push	r29
     652:	cd b7       	in	r28, 0x3d	; 61
     654:	de b7       	in	r29, 0x3e	; 62
     656:	81 e0       	ldi	r24, 0x01	; 1
     658:	80 93 86 01 	sts	0x0186, r24	; 0x800186 <__data_end>
     65c:	45 d4       	rcall	.+2186   	; 0xee8 <Convert_Key_to_Note>
     65e:	dc 01       	movw	r26, r24
     660:	cb 01       	movw	r24, r22
     662:	bc 01       	movw	r22, r24
     664:	cd 01       	movw	r24, r26
     666:	a1 d4       	rcall	.+2370   	; 0xfaa <set_PWM>
     668:	00 00       	nop
     66a:	df 91       	pop	r29
     66c:	cf 91       	pop	r28
     66e:	08 95       	ret

00000670 <__vector_13>:
     670:	1f 92       	push	r1
     672:	0f 92       	push	r0
     674:	00 90 5f 00 	lds	r0, 0x005F	; 0x80005f <__TEXT_REGION_LENGTH__+0x7e005f>
     678:	0f 92       	push	r0
     67a:	11 24       	eor	r1, r1
     67c:	00 90 5b 00 	lds	r0, 0x005B	; 0x80005b <__TEXT_REGION_LENGTH__+0x7e005b>
     680:	0f 92       	push	r0
     682:	2f 93       	push	r18
     684:	3f 93       	push	r19
     686:	4f 93       	push	r20
     688:	5f 93       	push	r21
     68a:	6f 93       	push	r22
     68c:	7f 93       	push	r23
     68e:	8f 93       	push	r24
     690:	9f 93       	push	r25
     692:	af 93       	push	r26
     694:	bf 93       	push	r27
     696:	ef 93       	push	r30
     698:	ff 93       	push	r31
     69a:	cf 93       	push	r28
     69c:	df 93       	push	r29
     69e:	cd b7       	in	r28, 0x3d	; 61
     6a0:	de b7       	in	r29, 0x3e	; 62
     6a2:	80 91 87 01 	lds	r24, 0x0187	; 0x800187 <_avr_timer_cntcurr>
     6a6:	90 91 88 01 	lds	r25, 0x0188	; 0x800188 <_avr_timer_cntcurr+0x1>
     6aa:	a0 91 89 01 	lds	r26, 0x0189	; 0x800189 <_avr_timer_cntcurr+0x2>
     6ae:	b0 91 8a 01 	lds	r27, 0x018A	; 0x80018a <_avr_timer_cntcurr+0x3>
     6b2:	01 97       	sbiw	r24, 0x01	; 1
     6b4:	a1 09       	sbc	r26, r1
     6b6:	b1 09       	sbc	r27, r1
     6b8:	80 93 87 01 	sts	0x0187, r24	; 0x800187 <_avr_timer_cntcurr>
     6bc:	90 93 88 01 	sts	0x0188, r25	; 0x800188 <_avr_timer_cntcurr+0x1>
     6c0:	a0 93 89 01 	sts	0x0189, r26	; 0x800189 <_avr_timer_cntcurr+0x2>
     6c4:	b0 93 8a 01 	sts	0x018A, r27	; 0x80018a <_avr_timer_cntcurr+0x3>
     6c8:	80 91 87 01 	lds	r24, 0x0187	; 0x800187 <_avr_timer_cntcurr>
     6cc:	90 91 88 01 	lds	r25, 0x0188	; 0x800188 <_avr_timer_cntcurr+0x1>
     6d0:	a0 91 89 01 	lds	r26, 0x0189	; 0x800189 <_avr_timer_cntcurr+0x2>
     6d4:	b0 91 8a 01 	lds	r27, 0x018A	; 0x80018a <_avr_timer_cntcurr+0x3>
     6d8:	89 2b       	or	r24, r25
     6da:	8a 2b       	or	r24, r26
     6dc:	8b 2b       	or	r24, r27
     6de:	89 f4       	brne	.+34     	; 0x702 <__vector_13+0x92>
     6e0:	b6 df       	rcall	.-148    	; 0x64e <TimerISR>
     6e2:	80 91 00 01 	lds	r24, 0x0100	; 0x800100 <__data_start>
     6e6:	90 91 01 01 	lds	r25, 0x0101	; 0x800101 <__data_start+0x1>
     6ea:	a0 91 02 01 	lds	r26, 0x0102	; 0x800102 <__data_start+0x2>
     6ee:	b0 91 03 01 	lds	r27, 0x0103	; 0x800103 <__data_start+0x3>
     6f2:	80 93 87 01 	sts	0x0187, r24	; 0x800187 <_avr_timer_cntcurr>
     6f6:	90 93 88 01 	sts	0x0188, r25	; 0x800188 <_avr_timer_cntcurr+0x1>
     6fa:	a0 93 89 01 	sts	0x0189, r26	; 0x800189 <_avr_timer_cntcurr+0x2>
     6fe:	b0 93 8a 01 	sts	0x018A, r27	; 0x80018a <_avr_timer_cntcurr+0x3>
     702:	00 00       	nop
     704:	df 91       	pop	r29
     706:	cf 91       	pop	r28
     708:	ff 91       	pop	r31
     70a:	ef 91       	pop	r30
     70c:	bf 91       	pop	r27
     70e:	af 91       	pop	r26
     710:	9f 91       	pop	r25
     712:	8f 91       	pop	r24
     714:	7f 91       	pop	r23
     716:	6f 91       	pop	r22
     718:	5f 91       	pop	r21
     71a:	4f 91       	pop	r20
     71c:	3f 91       	pop	r19
     71e:	2f 91       	pop	r18
     720:	0f 90       	pop	r0
     722:	00 92 5b 00 	sts	0x005B, r0	; 0x80005b <__TEXT_REGION_LENGTH__+0x7e005b>
     726:	0f 90       	pop	r0
     728:	00 92 5f 00 	sts	0x005F, r0	; 0x80005f <__TEXT_REGION_LENGTH__+0x7e005f>
     72c:	0f 90       	pop	r0
     72e:	1f 90       	pop	r1
     730:	18 95       	reti

00000732 <MAX7219_MatrixInit>:
     732:	cf 93       	push	r28
     734:	df 93       	push	r29
     736:	00 d0       	rcall	.+0      	; 0x738 <MAX7219_MatrixInit+0x6>
     738:	cd b7       	in	r28, 0x3d	; 61
     73a:	de b7       	in	r29, 0x3e	; 62
     73c:	8b d2       	rcall	.+1302   	; 0xc54 <MAX7219_Init>
     73e:	1a 82       	std	Y+2, r1	; 0x02
     740:	19 82       	std	Y+1, r1	; 0x01
     742:	18 c0       	rjmp	.+48     	; 0x774 <MAX7219_MatrixInit+0x42>
     744:	89 81       	ldd	r24, Y+1	; 0x01
     746:	20 d0       	rcall	.+64     	; 0x788 <MAX7219_MatrixClear>
     748:	89 81       	ldd	r24, Y+1	; 0x01
     74a:	61 e0       	ldi	r22, 0x01	; 1
     74c:	99 d3       	rcall	.+1842   	; 0xe80 <MAX7219_ShutDown>
     74e:	89 81       	ldd	r24, Y+1	; 0x01
     750:	60 e0       	ldi	r22, 0x00	; 0
     752:	b0 d3       	rcall	.+1888   	; 0xeb4 <MAX7219_Test>
     754:	89 81       	ldd	r24, Y+1	; 0x01
     756:	60 e0       	ldi	r22, 0x00	; 0
     758:	4a d3       	rcall	.+1684   	; 0xdee <MAX7219_Decode>
     75a:	89 81       	ldd	r24, Y+1	; 0x01
     75c:	61 e0       	ldi	r22, 0x01	; 1
     75e:	5c d3       	rcall	.+1720   	; 0xe18 <MAX7219_Intensity>
     760:	89 81       	ldd	r24, Y+1	; 0x01
     762:	67 e0       	ldi	r22, 0x07	; 7
     764:	73 d3       	rcall	.+1766   	; 0xe4c <MAX7219_ScanLimit>
     766:	89 81       	ldd	r24, Y+1	; 0x01
     768:	0f d0       	rcall	.+30     	; 0x788 <MAX7219_MatrixClear>
     76a:	89 81       	ldd	r24, Y+1	; 0x01
     76c:	9a 81       	ldd	r25, Y+2	; 0x02
     76e:	01 96       	adiw	r24, 0x01	; 1
     770:	9a 83       	std	Y+2, r25	; 0x02
     772:	89 83       	std	Y+1, r24	; 0x01
     774:	89 81       	ldd	r24, Y+1	; 0x01
     776:	9a 81       	ldd	r25, Y+2	; 0x02
     778:	04 97       	sbiw	r24, 0x04	; 4
     77a:	24 f3       	brlt	.-56     	; 0x744 <MAX7219_MatrixInit+0x12>
     77c:	00 00       	nop
     77e:	0f 90       	pop	r0
     780:	0f 90       	pop	r0
     782:	df 91       	pop	r29
     784:	cf 91       	pop	r28
     786:	08 95       	ret

00000788 <MAX7219_MatrixClear>:
     788:	cf 93       	push	r28
     78a:	df 93       	push	r29
     78c:	00 d0       	rcall	.+0      	; 0x78e <MAX7219_MatrixClear+0x6>
     78e:	1f 92       	push	r1
     790:	cd b7       	in	r28, 0x3d	; 61
     792:	de b7       	in	r29, 0x3e	; 62
     794:	8b 83       	std	Y+3, r24	; 0x03
     796:	1a 82       	std	Y+2, r1	; 0x02
     798:	19 82       	std	Y+1, r1	; 0x01
     79a:	17 c0       	rjmp	.+46     	; 0x7ca <MAX7219_MatrixClear+0x42>
     79c:	8b 81       	ldd	r24, Y+3	; 0x03
     79e:	88 2f       	mov	r24, r24
     7a0:	90 e0       	ldi	r25, 0x00	; 0
     7a2:	9c 01       	movw	r18, r24
     7a4:	22 0f       	add	r18, r18
     7a6:	33 1f       	adc	r19, r19
     7a8:	22 0f       	add	r18, r18
     7aa:	33 1f       	adc	r19, r19
     7ac:	22 0f       	add	r18, r18
     7ae:	33 1f       	adc	r19, r19
     7b0:	89 81       	ldd	r24, Y+1	; 0x01
     7b2:	9a 81       	ldd	r25, Y+2	; 0x02
     7b4:	82 0f       	add	r24, r18
     7b6:	93 1f       	adc	r25, r19
     7b8:	8e 56       	subi	r24, 0x6E	; 110
     7ba:	9e 4f       	sbci	r25, 0xFE	; 254
     7bc:	fc 01       	movw	r30, r24
     7be:	10 82       	st	Z, r1
     7c0:	89 81       	ldd	r24, Y+1	; 0x01
     7c2:	9a 81       	ldd	r25, Y+2	; 0x02
     7c4:	01 96       	adiw	r24, 0x01	; 1
     7c6:	9a 83       	std	Y+2, r25	; 0x02
     7c8:	89 83       	std	Y+1, r24	; 0x01
     7ca:	89 81       	ldd	r24, Y+1	; 0x01
     7cc:	9a 81       	ldd	r25, Y+2	; 0x02
     7ce:	08 97       	sbiw	r24, 0x08	; 8
     7d0:	2c f3       	brlt	.-54     	; 0x79c <MAX7219_MatrixClear+0x14>
     7d2:	00 00       	nop
     7d4:	0f 90       	pop	r0
     7d6:	0f 90       	pop	r0
     7d8:	0f 90       	pop	r0
     7da:	df 91       	pop	r29
     7dc:	cf 91       	pop	r28
     7de:	08 95       	ret

000007e0 <MAX7219_MatrixSetRow64>:
     7e0:	af 92       	push	r10
     7e2:	bf 92       	push	r11
     7e4:	cf 92       	push	r12
     7e6:	df 92       	push	r13
     7e8:	ef 92       	push	r14
     7ea:	ff 92       	push	r15
     7ec:	0f 93       	push	r16
     7ee:	1f 93       	push	r17
     7f0:	cf 93       	push	r28
     7f2:	df 93       	push	r29
     7f4:	cd b7       	in	r28, 0x3d	; 61
     7f6:	de b7       	in	r29, 0x3e	; 62
     7f8:	2c 97       	sbiw	r28, 0x0c	; 12
     7fa:	0f b6       	in	r0, 0x3f	; 63
     7fc:	f8 94       	cli
     7fe:	de bf       	out	0x3e, r29	; 62
     800:	0f be       	out	0x3f, r0	; 63
     802:	cd bf       	out	0x3d, r28	; 61
     804:	8c 83       	std	Y+4, r24	; 0x04
     806:	0d 83       	std	Y+5, r16	; 0x05
     808:	1e 83       	std	Y+6, r17	; 0x06
     80a:	2f 83       	std	Y+7, r18	; 0x07
     80c:	38 87       	std	Y+8, r19	; 0x08
     80e:	49 87       	std	Y+9, r20	; 0x09
     810:	5a 87       	std	Y+10, r21	; 0x0a
     812:	6b 87       	std	Y+11, r22	; 0x0b
     814:	7c 87       	std	Y+12, r23	; 0x0c
     816:	1a 82       	std	Y+2, r1	; 0x02
     818:	19 82       	std	Y+1, r1	; 0x01
     81a:	3a c0       	rjmp	.+116    	; 0x890 <MAX7219_MatrixSetRow64+0xb0>
     81c:	8d 81       	ldd	r24, Y+5	; 0x05
     81e:	8b 83       	std	Y+3, r24	; 0x03
     820:	8c 81       	ldd	r24, Y+4	; 0x04
     822:	28 2f       	mov	r18, r24
     824:	30 e0       	ldi	r19, 0x00	; 0
     826:	47 e0       	ldi	r20, 0x07	; 7
     828:	50 e0       	ldi	r21, 0x00	; 0
     82a:	89 81       	ldd	r24, Y+1	; 0x01
     82c:	9a 81       	ldd	r25, Y+2	; 0x02
     82e:	ba 01       	movw	r22, r20
     830:	68 1b       	sub	r22, r24
     832:	79 0b       	sbc	r23, r25
     834:	cb 01       	movw	r24, r22
     836:	22 0f       	add	r18, r18
     838:	33 1f       	adc	r19, r19
     83a:	22 0f       	add	r18, r18
     83c:	33 1f       	adc	r19, r19
     83e:	22 0f       	add	r18, r18
     840:	33 1f       	adc	r19, r19
     842:	82 0f       	add	r24, r18
     844:	93 1f       	adc	r25, r19
     846:	8e 56       	subi	r24, 0x6E	; 110
     848:	9e 4f       	sbci	r25, 0xFE	; 254
     84a:	2b 81       	ldd	r18, Y+3	; 0x03
     84c:	fc 01       	movw	r30, r24
     84e:	20 83       	st	Z, r18
     850:	2d 81       	ldd	r18, Y+5	; 0x05
     852:	3e 81       	ldd	r19, Y+6	; 0x06
     854:	4f 81       	ldd	r20, Y+7	; 0x07
     856:	58 85       	ldd	r21, Y+8	; 0x08
     858:	69 85       	ldd	r22, Y+9	; 0x09
     85a:	7a 85       	ldd	r23, Y+10	; 0x0a
     85c:	8b 85       	ldd	r24, Y+11	; 0x0b
     85e:	9c 85       	ldd	r25, Y+12	; 0x0c
     860:	08 e0       	ldi	r16, 0x08	; 8
     862:	0e 94 c5 14 	call	0x298a	; 0x298a <__lshrdi3>
     866:	a2 2e       	mov	r10, r18
     868:	b3 2e       	mov	r11, r19
     86a:	c4 2e       	mov	r12, r20
     86c:	d5 2e       	mov	r13, r21
     86e:	e6 2e       	mov	r14, r22
     870:	f7 2e       	mov	r15, r23
     872:	08 2f       	mov	r16, r24
     874:	19 2f       	mov	r17, r25
     876:	ad 82       	std	Y+5, r10	; 0x05
     878:	be 82       	std	Y+6, r11	; 0x06
     87a:	cf 82       	std	Y+7, r12	; 0x07
     87c:	d8 86       	std	Y+8, r13	; 0x08
     87e:	e9 86       	std	Y+9, r14	; 0x09
     880:	fa 86       	std	Y+10, r15	; 0x0a
     882:	0b 87       	std	Y+11, r16	; 0x0b
     884:	1c 87       	std	Y+12, r17	; 0x0c
     886:	89 81       	ldd	r24, Y+1	; 0x01
     888:	9a 81       	ldd	r25, Y+2	; 0x02
     88a:	01 96       	adiw	r24, 0x01	; 1
     88c:	9a 83       	std	Y+2, r25	; 0x02
     88e:	89 83       	std	Y+1, r24	; 0x01
     890:	89 81       	ldd	r24, Y+1	; 0x01
     892:	9a 81       	ldd	r25, Y+2	; 0x02
     894:	08 97       	sbiw	r24, 0x08	; 8
     896:	14 f2       	brlt	.-124    	; 0x81c <MAX7219_MatrixSetRow64+0x3c>
     898:	00 00       	nop
     89a:	2c 96       	adiw	r28, 0x0c	; 12
     89c:	0f b6       	in	r0, 0x3f	; 63
     89e:	f8 94       	cli
     8a0:	de bf       	out	0x3e, r29	; 62
     8a2:	0f be       	out	0x3f, r0	; 63
     8a4:	cd bf       	out	0x3d, r28	; 61
     8a6:	df 91       	pop	r29
     8a8:	cf 91       	pop	r28
     8aa:	1f 91       	pop	r17
     8ac:	0f 91       	pop	r16
     8ae:	ff 90       	pop	r15
     8b0:	ef 90       	pop	r14
     8b2:	df 90       	pop	r13
     8b4:	cf 90       	pop	r12
     8b6:	bf 90       	pop	r11
     8b8:	af 90       	pop	r10
     8ba:	08 95       	ret

000008bc <MAX7219_MatrixRShift>:
     8bc:	cf 93       	push	r28
     8be:	df 93       	push	r29
     8c0:	cd b7       	in	r28, 0x3d	; 61
     8c2:	de b7       	in	r29, 0x3e	; 62
     8c4:	27 97       	sbiw	r28, 0x07	; 7
     8c6:	0f b6       	in	r0, 0x3f	; 63
     8c8:	f8 94       	cli
     8ca:	de bf       	out	0x3e, r29	; 62
     8cc:	0f be       	out	0x3f, r0	; 63
     8ce:	cd bf       	out	0x3d, r28	; 61
     8d0:	8f 83       	std	Y+7, r24	; 0x07
     8d2:	1a 82       	std	Y+2, r1	; 0x02
     8d4:	19 82       	std	Y+1, r1	; 0x01
     8d6:	a1 c0       	rjmp	.+322    	; 0xa1a <MAX7219_MatrixRShift+0x15e>
     8d8:	89 81       	ldd	r24, Y+1	; 0x01
     8da:	9a 81       	ldd	r25, Y+2	; 0x02
     8dc:	8e 56       	subi	r24, 0x6E	; 110
     8de:	9e 4f       	sbci	r25, 0xFE	; 254
     8e0:	fc 01       	movw	r30, r24
     8e2:	80 81       	ld	r24, Z
     8e4:	88 1f       	adc	r24, r24
     8e6:	88 27       	eor	r24, r24
     8e8:	88 1f       	adc	r24, r24
     8ea:	8b 83       	std	Y+3, r24	; 0x03
     8ec:	89 81       	ldd	r24, Y+1	; 0x01
     8ee:	9a 81       	ldd	r25, Y+2	; 0x02
     8f0:	8e 56       	subi	r24, 0x6E	; 110
     8f2:	9e 4f       	sbci	r25, 0xFE	; 254
     8f4:	fc 01       	movw	r30, r24
     8f6:	80 81       	ld	r24, Z
     8f8:	28 2f       	mov	r18, r24
     8fa:	22 0f       	add	r18, r18
     8fc:	89 81       	ldd	r24, Y+1	; 0x01
     8fe:	9a 81       	ldd	r25, Y+2	; 0x02
     900:	8e 56       	subi	r24, 0x6E	; 110
     902:	9e 4f       	sbci	r25, 0xFE	; 254
     904:	fc 01       	movw	r30, r24
     906:	20 83       	st	Z, r18
     908:	89 81       	ldd	r24, Y+1	; 0x01
     90a:	9a 81       	ldd	r25, Y+2	; 0x02
     90c:	86 56       	subi	r24, 0x66	; 102
     90e:	9e 4f       	sbci	r25, 0xFE	; 254
     910:	fc 01       	movw	r30, r24
     912:	80 81       	ld	r24, Z
     914:	88 1f       	adc	r24, r24
     916:	88 27       	eor	r24, r24
     918:	88 1f       	adc	r24, r24
     91a:	8c 83       	std	Y+4, r24	; 0x04
     91c:	89 81       	ldd	r24, Y+1	; 0x01
     91e:	9a 81       	ldd	r25, Y+2	; 0x02
     920:	86 56       	subi	r24, 0x66	; 102
     922:	9e 4f       	sbci	r25, 0xFE	; 254
     924:	fc 01       	movw	r30, r24
     926:	80 81       	ld	r24, Z
     928:	28 2f       	mov	r18, r24
     92a:	22 0f       	add	r18, r18
     92c:	89 81       	ldd	r24, Y+1	; 0x01
     92e:	9a 81       	ldd	r25, Y+2	; 0x02
     930:	86 56       	subi	r24, 0x66	; 102
     932:	9e 4f       	sbci	r25, 0xFE	; 254
     934:	fc 01       	movw	r30, r24
     936:	20 83       	st	Z, r18
     938:	89 81       	ldd	r24, Y+1	; 0x01
     93a:	9a 81       	ldd	r25, Y+2	; 0x02
     93c:	86 56       	subi	r24, 0x66	; 102
     93e:	9e 4f       	sbci	r25, 0xFE	; 254
     940:	fc 01       	movw	r30, r24
     942:	90 81       	ld	r25, Z
     944:	8b 81       	ldd	r24, Y+3	; 0x03
     946:	29 2f       	mov	r18, r25
     948:	28 2b       	or	r18, r24
     94a:	89 81       	ldd	r24, Y+1	; 0x01
     94c:	9a 81       	ldd	r25, Y+2	; 0x02
     94e:	86 56       	subi	r24, 0x66	; 102
     950:	9e 4f       	sbci	r25, 0xFE	; 254
     952:	fc 01       	movw	r30, r24
     954:	20 83       	st	Z, r18
     956:	89 81       	ldd	r24, Y+1	; 0x01
     958:	9a 81       	ldd	r25, Y+2	; 0x02
     95a:	8e 55       	subi	r24, 0x5E	; 94
     95c:	9e 4f       	sbci	r25, 0xFE	; 254
     95e:	fc 01       	movw	r30, r24
     960:	80 81       	ld	r24, Z
     962:	88 1f       	adc	r24, r24
     964:	88 27       	eor	r24, r24
     966:	88 1f       	adc	r24, r24
     968:	8d 83       	std	Y+5, r24	; 0x05
     96a:	89 81       	ldd	r24, Y+1	; 0x01
     96c:	9a 81       	ldd	r25, Y+2	; 0x02
     96e:	8e 55       	subi	r24, 0x5E	; 94
     970:	9e 4f       	sbci	r25, 0xFE	; 254
     972:	fc 01       	movw	r30, r24
     974:	80 81       	ld	r24, Z
     976:	28 2f       	mov	r18, r24
     978:	22 0f       	add	r18, r18
     97a:	89 81       	ldd	r24, Y+1	; 0x01
     97c:	9a 81       	ldd	r25, Y+2	; 0x02
     97e:	8e 55       	subi	r24, 0x5E	; 94
     980:	9e 4f       	sbci	r25, 0xFE	; 254
     982:	fc 01       	movw	r30, r24
     984:	20 83       	st	Z, r18
     986:	89 81       	ldd	r24, Y+1	; 0x01
     988:	9a 81       	ldd	r25, Y+2	; 0x02
     98a:	8e 55       	subi	r24, 0x5E	; 94
     98c:	9e 4f       	sbci	r25, 0xFE	; 254
     98e:	fc 01       	movw	r30, r24
     990:	90 81       	ld	r25, Z
     992:	8c 81       	ldd	r24, Y+4	; 0x04
     994:	29 2f       	mov	r18, r25
     996:	28 2b       	or	r18, r24
     998:	89 81       	ldd	r24, Y+1	; 0x01
     99a:	9a 81       	ldd	r25, Y+2	; 0x02
     99c:	8e 55       	subi	r24, 0x5E	; 94
     99e:	9e 4f       	sbci	r25, 0xFE	; 254
     9a0:	fc 01       	movw	r30, r24
     9a2:	20 83       	st	Z, r18
     9a4:	89 81       	ldd	r24, Y+1	; 0x01
     9a6:	9a 81       	ldd	r25, Y+2	; 0x02
     9a8:	86 55       	subi	r24, 0x56	; 86
     9aa:	9e 4f       	sbci	r25, 0xFE	; 254
     9ac:	fc 01       	movw	r30, r24
     9ae:	80 81       	ld	r24, Z
     9b0:	88 1f       	adc	r24, r24
     9b2:	88 27       	eor	r24, r24
     9b4:	88 1f       	adc	r24, r24
     9b6:	8e 83       	std	Y+6, r24	; 0x06
     9b8:	89 81       	ldd	r24, Y+1	; 0x01
     9ba:	9a 81       	ldd	r25, Y+2	; 0x02
     9bc:	86 55       	subi	r24, 0x56	; 86
     9be:	9e 4f       	sbci	r25, 0xFE	; 254
     9c0:	fc 01       	movw	r30, r24
     9c2:	80 81       	ld	r24, Z
     9c4:	28 2f       	mov	r18, r24
     9c6:	22 0f       	add	r18, r18
     9c8:	89 81       	ldd	r24, Y+1	; 0x01
     9ca:	9a 81       	ldd	r25, Y+2	; 0x02
     9cc:	86 55       	subi	r24, 0x56	; 86
     9ce:	9e 4f       	sbci	r25, 0xFE	; 254
     9d0:	fc 01       	movw	r30, r24
     9d2:	20 83       	st	Z, r18
     9d4:	89 81       	ldd	r24, Y+1	; 0x01
     9d6:	9a 81       	ldd	r25, Y+2	; 0x02
     9d8:	86 55       	subi	r24, 0x56	; 86
     9da:	9e 4f       	sbci	r25, 0xFE	; 254
     9dc:	fc 01       	movw	r30, r24
     9de:	90 81       	ld	r25, Z
     9e0:	8d 81       	ldd	r24, Y+5	; 0x05
     9e2:	29 2f       	mov	r18, r25
     9e4:	28 2b       	or	r18, r24
     9e6:	89 81       	ldd	r24, Y+1	; 0x01
     9e8:	9a 81       	ldd	r25, Y+2	; 0x02
     9ea:	86 55       	subi	r24, 0x56	; 86
     9ec:	9e 4f       	sbci	r25, 0xFE	; 254
     9ee:	fc 01       	movw	r30, r24
     9f0:	20 83       	st	Z, r18
     9f2:	89 81       	ldd	r24, Y+1	; 0x01
     9f4:	9a 81       	ldd	r25, Y+2	; 0x02
     9f6:	8e 56       	subi	r24, 0x6E	; 110
     9f8:	9e 4f       	sbci	r25, 0xFE	; 254
     9fa:	fc 01       	movw	r30, r24
     9fc:	90 81       	ld	r25, Z
     9fe:	8e 81       	ldd	r24, Y+6	; 0x06
     a00:	29 2f       	mov	r18, r25
     a02:	28 2b       	or	r18, r24
     a04:	89 81       	ldd	r24, Y+1	; 0x01
     a06:	9a 81       	ldd	r25, Y+2	; 0x02
     a08:	8e 56       	subi	r24, 0x6E	; 110
     a0a:	9e 4f       	sbci	r25, 0xFE	; 254
     a0c:	fc 01       	movw	r30, r24
     a0e:	20 83       	st	Z, r18
     a10:	89 81       	ldd	r24, Y+1	; 0x01
     a12:	9a 81       	ldd	r25, Y+2	; 0x02
     a14:	01 96       	adiw	r24, 0x01	; 1
     a16:	9a 83       	std	Y+2, r25	; 0x02
     a18:	89 83       	std	Y+1, r24	; 0x01
     a1a:	89 81       	ldd	r24, Y+1	; 0x01
     a1c:	9a 81       	ldd	r25, Y+2	; 0x02
     a1e:	08 97       	sbiw	r24, 0x08	; 8
     a20:	0c f4       	brge	.+2      	; 0xa24 <MAX7219_MatrixRShift+0x168>
     a22:	5a cf       	rjmp	.-332    	; 0x8d8 <MAX7219_MatrixRShift+0x1c>
     a24:	00 00       	nop
     a26:	27 96       	adiw	r28, 0x07	; 7
     a28:	0f b6       	in	r0, 0x3f	; 63
     a2a:	f8 94       	cli
     a2c:	de bf       	out	0x3e, r29	; 62
     a2e:	0f be       	out	0x3f, r0	; 63
     a30:	cd bf       	out	0x3d, r28	; 61
     a32:	df 91       	pop	r29
     a34:	cf 91       	pop	r28
     a36:	08 95       	ret

00000a38 <MAX7219_MatrixLShift>:
     a38:	cf 93       	push	r28
     a3a:	df 93       	push	r29
     a3c:	cd b7       	in	r28, 0x3d	; 61
     a3e:	de b7       	in	r29, 0x3e	; 62
     a40:	27 97       	sbiw	r28, 0x07	; 7
     a42:	0f b6       	in	r0, 0x3f	; 63
     a44:	f8 94       	cli
     a46:	de bf       	out	0x3e, r29	; 62
     a48:	0f be       	out	0x3f, r0	; 63
     a4a:	cd bf       	out	0x3d, r28	; 61
     a4c:	8f 83       	std	Y+7, r24	; 0x07
     a4e:	1a 82       	std	Y+2, r1	; 0x02
     a50:	19 82       	std	Y+1, r1	; 0x01
     a52:	b1 c0       	rjmp	.+354    	; 0xbb6 <MAX7219_MatrixLShift+0x17e>
     a54:	89 81       	ldd	r24, Y+1	; 0x01
     a56:	9a 81       	ldd	r25, Y+2	; 0x02
     a58:	86 55       	subi	r24, 0x56	; 86
     a5a:	9e 4f       	sbci	r25, 0xFE	; 254
     a5c:	fc 01       	movw	r30, r24
     a5e:	80 81       	ld	r24, Z
     a60:	88 2f       	mov	r24, r24
     a62:	90 e0       	ldi	r25, 0x00	; 0
     a64:	96 95       	lsr	r25
     a66:	98 2f       	mov	r25, r24
     a68:	88 27       	eor	r24, r24
     a6a:	97 95       	ror	r25
     a6c:	87 95       	ror	r24
     a6e:	8b 83       	std	Y+3, r24	; 0x03
     a70:	89 81       	ldd	r24, Y+1	; 0x01
     a72:	9a 81       	ldd	r25, Y+2	; 0x02
     a74:	86 55       	subi	r24, 0x56	; 86
     a76:	9e 4f       	sbci	r25, 0xFE	; 254
     a78:	fc 01       	movw	r30, r24
     a7a:	80 81       	ld	r24, Z
     a7c:	28 2f       	mov	r18, r24
     a7e:	26 95       	lsr	r18
     a80:	89 81       	ldd	r24, Y+1	; 0x01
     a82:	9a 81       	ldd	r25, Y+2	; 0x02
     a84:	86 55       	subi	r24, 0x56	; 86
     a86:	9e 4f       	sbci	r25, 0xFE	; 254
     a88:	fc 01       	movw	r30, r24
     a8a:	20 83       	st	Z, r18
     a8c:	89 81       	ldd	r24, Y+1	; 0x01
     a8e:	9a 81       	ldd	r25, Y+2	; 0x02
     a90:	8e 55       	subi	r24, 0x5E	; 94
     a92:	9e 4f       	sbci	r25, 0xFE	; 254
     a94:	fc 01       	movw	r30, r24
     a96:	80 81       	ld	r24, Z
     a98:	88 2f       	mov	r24, r24
     a9a:	90 e0       	ldi	r25, 0x00	; 0
     a9c:	96 95       	lsr	r25
     a9e:	98 2f       	mov	r25, r24
     aa0:	88 27       	eor	r24, r24
     aa2:	97 95       	ror	r25
     aa4:	87 95       	ror	r24
     aa6:	8c 83       	std	Y+4, r24	; 0x04
     aa8:	89 81       	ldd	r24, Y+1	; 0x01
     aaa:	9a 81       	ldd	r25, Y+2	; 0x02
     aac:	8e 55       	subi	r24, 0x5E	; 94
     aae:	9e 4f       	sbci	r25, 0xFE	; 254
     ab0:	fc 01       	movw	r30, r24
     ab2:	80 81       	ld	r24, Z
     ab4:	28 2f       	mov	r18, r24
     ab6:	26 95       	lsr	r18
     ab8:	89 81       	ldd	r24, Y+1	; 0x01
     aba:	9a 81       	ldd	r25, Y+2	; 0x02
     abc:	8e 55       	subi	r24, 0x5E	; 94
     abe:	9e 4f       	sbci	r25, 0xFE	; 254
     ac0:	fc 01       	movw	r30, r24
     ac2:	20 83       	st	Z, r18
     ac4:	89 81       	ldd	r24, Y+1	; 0x01
     ac6:	9a 81       	ldd	r25, Y+2	; 0x02
     ac8:	8e 55       	subi	r24, 0x5E	; 94
     aca:	9e 4f       	sbci	r25, 0xFE	; 254
     acc:	fc 01       	movw	r30, r24
     ace:	90 81       	ld	r25, Z
     ad0:	8b 81       	ldd	r24, Y+3	; 0x03
     ad2:	29 2f       	mov	r18, r25
     ad4:	28 2b       	or	r18, r24
     ad6:	89 81       	ldd	r24, Y+1	; 0x01
     ad8:	9a 81       	ldd	r25, Y+2	; 0x02
     ada:	8e 55       	subi	r24, 0x5E	; 94
     adc:	9e 4f       	sbci	r25, 0xFE	; 254
     ade:	fc 01       	movw	r30, r24
     ae0:	20 83       	st	Z, r18
     ae2:	89 81       	ldd	r24, Y+1	; 0x01
     ae4:	9a 81       	ldd	r25, Y+2	; 0x02
     ae6:	86 56       	subi	r24, 0x66	; 102
     ae8:	9e 4f       	sbci	r25, 0xFE	; 254
     aea:	fc 01       	movw	r30, r24
     aec:	80 81       	ld	r24, Z
     aee:	88 2f       	mov	r24, r24
     af0:	90 e0       	ldi	r25, 0x00	; 0
     af2:	96 95       	lsr	r25
     af4:	98 2f       	mov	r25, r24
     af6:	88 27       	eor	r24, r24
     af8:	97 95       	ror	r25
     afa:	87 95       	ror	r24
     afc:	8d 83       	std	Y+5, r24	; 0x05
     afe:	89 81       	ldd	r24, Y+1	; 0x01
     b00:	9a 81       	ldd	r25, Y+2	; 0x02
     b02:	86 56       	subi	r24, 0x66	; 102
     b04:	9e 4f       	sbci	r25, 0xFE	; 254
     b06:	fc 01       	movw	r30, r24
     b08:	80 81       	ld	r24, Z
     b0a:	28 2f       	mov	r18, r24
     b0c:	26 95       	lsr	r18
     b0e:	89 81       	ldd	r24, Y+1	; 0x01
     b10:	9a 81       	ldd	r25, Y+2	; 0x02
     b12:	86 56       	subi	r24, 0x66	; 102
     b14:	9e 4f       	sbci	r25, 0xFE	; 254
     b16:	fc 01       	movw	r30, r24
     b18:	20 83       	st	Z, r18
     b1a:	89 81       	ldd	r24, Y+1	; 0x01
     b1c:	9a 81       	ldd	r25, Y+2	; 0x02
     b1e:	86 56       	subi	r24, 0x66	; 102
     b20:	9e 4f       	sbci	r25, 0xFE	; 254
     b22:	fc 01       	movw	r30, r24
     b24:	90 81       	ld	r25, Z
     b26:	8c 81       	ldd	r24, Y+4	; 0x04
     b28:	29 2f       	mov	r18, r25
     b2a:	28 2b       	or	r18, r24
     b2c:	89 81       	ldd	r24, Y+1	; 0x01
     b2e:	9a 81       	ldd	r25, Y+2	; 0x02
     b30:	86 56       	subi	r24, 0x66	; 102
     b32:	9e 4f       	sbci	r25, 0xFE	; 254
     b34:	fc 01       	movw	r30, r24
     b36:	20 83       	st	Z, r18
     b38:	89 81       	ldd	r24, Y+1	; 0x01
     b3a:	9a 81       	ldd	r25, Y+2	; 0x02
     b3c:	8e 56       	subi	r24, 0x6E	; 110
     b3e:	9e 4f       	sbci	r25, 0xFE	; 254
     b40:	fc 01       	movw	r30, r24
     b42:	80 81       	ld	r24, Z
     b44:	88 2f       	mov	r24, r24
     b46:	90 e0       	ldi	r25, 0x00	; 0
     b48:	96 95       	lsr	r25
     b4a:	98 2f       	mov	r25, r24
     b4c:	88 27       	eor	r24, r24
     b4e:	97 95       	ror	r25
     b50:	87 95       	ror	r24
     b52:	8e 83       	std	Y+6, r24	; 0x06
     b54:	89 81       	ldd	r24, Y+1	; 0x01
     b56:	9a 81       	ldd	r25, Y+2	; 0x02
     b58:	8e 56       	subi	r24, 0x6E	; 110
     b5a:	9e 4f       	sbci	r25, 0xFE	; 254
     b5c:	fc 01       	movw	r30, r24
     b5e:	80 81       	ld	r24, Z
     b60:	28 2f       	mov	r18, r24
     b62:	26 95       	lsr	r18
     b64:	89 81       	ldd	r24, Y+1	; 0x01
     b66:	9a 81       	ldd	r25, Y+2	; 0x02
     b68:	8e 56       	subi	r24, 0x6E	; 110
     b6a:	9e 4f       	sbci	r25, 0xFE	; 254
     b6c:	fc 01       	movw	r30, r24
     b6e:	20 83       	st	Z, r18
     b70:	89 81       	ldd	r24, Y+1	; 0x01
     b72:	9a 81       	ldd	r25, Y+2	; 0x02
     b74:	8e 56       	subi	r24, 0x6E	; 110
     b76:	9e 4f       	sbci	r25, 0xFE	; 254
     b78:	fc 01       	movw	r30, r24
     b7a:	90 81       	ld	r25, Z
     b7c:	8d 81       	ldd	r24, Y+5	; 0x05
     b7e:	29 2f       	mov	r18, r25
     b80:	28 2b       	or	r18, r24
     b82:	89 81       	ldd	r24, Y+1	; 0x01
     b84:	9a 81       	ldd	r25, Y+2	; 0x02
     b86:	8e 56       	subi	r24, 0x6E	; 110
     b88:	9e 4f       	sbci	r25, 0xFE	; 254
     b8a:	fc 01       	movw	r30, r24
     b8c:	20 83       	st	Z, r18
     b8e:	89 81       	ldd	r24, Y+1	; 0x01
     b90:	9a 81       	ldd	r25, Y+2	; 0x02
     b92:	86 55       	subi	r24, 0x56	; 86
     b94:	9e 4f       	sbci	r25, 0xFE	; 254
     b96:	fc 01       	movw	r30, r24
     b98:	90 81       	ld	r25, Z
     b9a:	8e 81       	ldd	r24, Y+6	; 0x06
     b9c:	29 2f       	mov	r18, r25
     b9e:	28 2b       	or	r18, r24
     ba0:	89 81       	ldd	r24, Y+1	; 0x01
     ba2:	9a 81       	ldd	r25, Y+2	; 0x02
     ba4:	86 55       	subi	r24, 0x56	; 86
     ba6:	9e 4f       	sbci	r25, 0xFE	; 254
     ba8:	fc 01       	movw	r30, r24
     baa:	20 83       	st	Z, r18
     bac:	89 81       	ldd	r24, Y+1	; 0x01
     bae:	9a 81       	ldd	r25, Y+2	; 0x02
     bb0:	01 96       	adiw	r24, 0x01	; 1
     bb2:	9a 83       	std	Y+2, r25	; 0x02
     bb4:	89 83       	std	Y+1, r24	; 0x01
     bb6:	89 81       	ldd	r24, Y+1	; 0x01
     bb8:	9a 81       	ldd	r25, Y+2	; 0x02
     bba:	08 97       	sbiw	r24, 0x08	; 8
     bbc:	0c f4       	brge	.+2      	; 0xbc0 <MAX7219_MatrixLShift+0x188>
     bbe:	4a cf       	rjmp	.-364    	; 0xa54 <MAX7219_MatrixLShift+0x1c>
     bc0:	00 00       	nop
     bc2:	27 96       	adiw	r28, 0x07	; 7
     bc4:	0f b6       	in	r0, 0x3f	; 63
     bc6:	f8 94       	cli
     bc8:	de bf       	out	0x3e, r29	; 62
     bca:	0f be       	out	0x3f, r0	; 63
     bcc:	cd bf       	out	0x3d, r28	; 61
     bce:	df 91       	pop	r29
     bd0:	cf 91       	pop	r28
     bd2:	08 95       	ret

00000bd4 <MAX7219_MatrixUpdate>:
     bd4:	cf 93       	push	r28
     bd6:	df 93       	push	r29
     bd8:	00 d0       	rcall	.+0      	; 0xbda <MAX7219_MatrixUpdate+0x6>
     bda:	00 d0       	rcall	.+0      	; 0xbdc <MAX7219_MatrixUpdate+0x8>
     bdc:	1f 92       	push	r1
     bde:	cd b7       	in	r28, 0x3d	; 61
     be0:	de b7       	in	r29, 0x3e	; 62
     be2:	1a 82       	std	Y+2, r1	; 0x02
     be4:	19 82       	std	Y+1, r1	; 0x01
     be6:	29 c0       	rjmp	.+82     	; 0xc3a <MAX7219_MatrixUpdate+0x66>
     be8:	1c 82       	std	Y+4, r1	; 0x04
     bea:	1b 82       	std	Y+3, r1	; 0x03
     bec:	1d c0       	rjmp	.+58     	; 0xc28 <MAX7219_MatrixUpdate+0x54>
     bee:	89 81       	ldd	r24, Y+1	; 0x01
     bf0:	9a 81       	ldd	r25, Y+2	; 0x02
     bf2:	9c 01       	movw	r18, r24
     bf4:	22 0f       	add	r18, r18
     bf6:	33 1f       	adc	r19, r19
     bf8:	22 0f       	add	r18, r18
     bfa:	33 1f       	adc	r19, r19
     bfc:	22 0f       	add	r18, r18
     bfe:	33 1f       	adc	r19, r19
     c00:	8b 81       	ldd	r24, Y+3	; 0x03
     c02:	9c 81       	ldd	r25, Y+4	; 0x04
     c04:	82 0f       	add	r24, r18
     c06:	93 1f       	adc	r25, r19
     c08:	8e 56       	subi	r24, 0x6E	; 110
     c0a:	9e 4f       	sbci	r25, 0xFE	; 254
     c0c:	fc 01       	movw	r30, r24
     c0e:	80 81       	ld	r24, Z
     c10:	8d 83       	std	Y+5, r24	; 0x05
     c12:	2d 81       	ldd	r18, Y+5	; 0x05
     c14:	9b 81       	ldd	r25, Y+3	; 0x03
     c16:	89 81       	ldd	r24, Y+1	; 0x01
     c18:	42 2f       	mov	r20, r18
     c1a:	69 2f       	mov	r22, r25
     c1c:	c8 d0       	rcall	.+400    	; 0xdae <MAX7219_Digit>
     c1e:	8b 81       	ldd	r24, Y+3	; 0x03
     c20:	9c 81       	ldd	r25, Y+4	; 0x04
     c22:	01 96       	adiw	r24, 0x01	; 1
     c24:	9c 83       	std	Y+4, r25	; 0x04
     c26:	8b 83       	std	Y+3, r24	; 0x03
     c28:	8b 81       	ldd	r24, Y+3	; 0x03
     c2a:	9c 81       	ldd	r25, Y+4	; 0x04
     c2c:	08 97       	sbiw	r24, 0x08	; 8
     c2e:	fc f2       	brlt	.-66     	; 0xbee <MAX7219_MatrixUpdate+0x1a>
     c30:	89 81       	ldd	r24, Y+1	; 0x01
     c32:	9a 81       	ldd	r25, Y+2	; 0x02
     c34:	01 96       	adiw	r24, 0x01	; 1
     c36:	9a 83       	std	Y+2, r25	; 0x02
     c38:	89 83       	std	Y+1, r24	; 0x01
     c3a:	89 81       	ldd	r24, Y+1	; 0x01
     c3c:	9a 81       	ldd	r25, Y+2	; 0x02
     c3e:	04 97       	sbiw	r24, 0x04	; 4
     c40:	9c f2       	brlt	.-90     	; 0xbe8 <MAX7219_MatrixUpdate+0x14>
     c42:	00 00       	nop
     c44:	0f 90       	pop	r0
     c46:	0f 90       	pop	r0
     c48:	0f 90       	pop	r0
     c4a:	0f 90       	pop	r0
     c4c:	0f 90       	pop	r0
     c4e:	df 91       	pop	r29
     c50:	cf 91       	pop	r28
     c52:	08 95       	ret

00000c54 <MAX7219_Init>:
     c54:	cf 93       	push	r28
     c56:	df 93       	push	r29
     c58:	cd b7       	in	r28, 0x3d	; 61
     c5a:	de b7       	in	r29, 0x3e	; 62
     c5c:	84 e2       	ldi	r24, 0x24	; 36
     c5e:	90 e0       	ldi	r25, 0x00	; 0
     c60:	24 e2       	ldi	r18, 0x24	; 36
     c62:	30 e0       	ldi	r19, 0x00	; 0
     c64:	f9 01       	movw	r30, r18
     c66:	20 81       	ld	r18, Z
     c68:	20 6b       	ori	r18, 0xB0	; 176
     c6a:	fc 01       	movw	r30, r24
     c6c:	20 83       	st	Z, r18
     c6e:	30 d0       	rcall	.+96     	; 0xcd0 <MAX7219_Deselect>
     c70:	84 e2       	ldi	r24, 0x24	; 36
     c72:	90 e0       	ldi	r25, 0x00	; 0
     c74:	24 e2       	ldi	r18, 0x24	; 36
     c76:	30 e0       	ldi	r19, 0x00	; 0
     c78:	f9 01       	movw	r30, r18
     c7a:	20 81       	ld	r18, Z
     c7c:	2f 7b       	andi	r18, 0xBF	; 191
     c7e:	fc 01       	movw	r30, r24
     c80:	20 83       	st	Z, r18
     c82:	85 e2       	ldi	r24, 0x25	; 37
     c84:	90 e0       	ldi	r25, 0x00	; 0
     c86:	25 e2       	ldi	r18, 0x25	; 37
     c88:	30 e0       	ldi	r19, 0x00	; 0
     c8a:	f9 01       	movw	r30, r18
     c8c:	20 81       	ld	r18, Z
     c8e:	20 64       	ori	r18, 0x40	; 64
     c90:	fc 01       	movw	r30, r24
     c92:	20 83       	st	Z, r18
     c94:	8c e4       	ldi	r24, 0x4C	; 76
     c96:	90 e0       	ldi	r25, 0x00	; 0
     c98:	2c e4       	ldi	r18, 0x4C	; 76
     c9a:	30 e0       	ldi	r19, 0x00	; 0
     c9c:	f9 01       	movw	r30, r18
     c9e:	20 81       	ld	r18, Z
     ca0:	20 65       	ori	r18, 0x50	; 80
     ca2:	fc 01       	movw	r30, r24
     ca4:	20 83       	st	Z, r18
     ca6:	00 00       	nop
     ca8:	df 91       	pop	r29
     caa:	cf 91       	pop	r28
     cac:	08 95       	ret

00000cae <MAX7219_Select>:
     cae:	cf 93       	push	r28
     cb0:	df 93       	push	r29
     cb2:	cd b7       	in	r28, 0x3d	; 61
     cb4:	de b7       	in	r29, 0x3e	; 62
     cb6:	85 e2       	ldi	r24, 0x25	; 37
     cb8:	90 e0       	ldi	r25, 0x00	; 0
     cba:	25 e2       	ldi	r18, 0x25	; 37
     cbc:	30 e0       	ldi	r19, 0x00	; 0
     cbe:	f9 01       	movw	r30, r18
     cc0:	20 81       	ld	r18, Z
     cc2:	2f 7e       	andi	r18, 0xEF	; 239
     cc4:	fc 01       	movw	r30, r24
     cc6:	20 83       	st	Z, r18
     cc8:	00 00       	nop
     cca:	df 91       	pop	r29
     ccc:	cf 91       	pop	r28
     cce:	08 95       	ret

00000cd0 <MAX7219_Deselect>:
     cd0:	cf 93       	push	r28
     cd2:	df 93       	push	r29
     cd4:	cd b7       	in	r28, 0x3d	; 61
     cd6:	de b7       	in	r29, 0x3e	; 62
     cd8:	85 e2       	ldi	r24, 0x25	; 37
     cda:	90 e0       	ldi	r25, 0x00	; 0
     cdc:	25 e2       	ldi	r18, 0x25	; 37
     cde:	30 e0       	ldi	r19, 0x00	; 0
     ce0:	f9 01       	movw	r30, r18
     ce2:	20 81       	ld	r18, Z
     ce4:	20 61       	ori	r18, 0x10	; 16
     ce6:	fc 01       	movw	r30, r24
     ce8:	20 83       	st	Z, r18
     cea:	00 00       	nop
     cec:	df 91       	pop	r29
     cee:	cf 91       	pop	r28
     cf0:	08 95       	ret

00000cf2 <MAX7219_Tx>:
     cf2:	cf 93       	push	r28
     cf4:	df 93       	push	r29
     cf6:	1f 92       	push	r1
     cf8:	cd b7       	in	r28, 0x3d	; 61
     cfa:	de b7       	in	r29, 0x3e	; 62
     cfc:	89 83       	std	Y+1, r24	; 0x01
     cfe:	8e e4       	ldi	r24, 0x4E	; 78
     d00:	90 e0       	ldi	r25, 0x00	; 0
     d02:	29 81       	ldd	r18, Y+1	; 0x01
     d04:	fc 01       	movw	r30, r24
     d06:	20 83       	st	Z, r18
     d08:	8d e4       	ldi	r24, 0x4D	; 77
     d0a:	90 e0       	ldi	r25, 0x00	; 0
     d0c:	fc 01       	movw	r30, r24
     d0e:	80 81       	ld	r24, Z
     d10:	88 23       	and	r24, r24
     d12:	d4 f7       	brge	.-12     	; 0xd08 <MAX7219_Tx+0x16>
     d14:	00 00       	nop
     d16:	0f 90       	pop	r0
     d18:	df 91       	pop	r29
     d1a:	cf 91       	pop	r28
     d1c:	08 95       	ret

00000d1e <MAX7219_Write>:
     d1e:	cf 93       	push	r28
     d20:	df 93       	push	r29
     d22:	cd b7       	in	r28, 0x3d	; 61
     d24:	de b7       	in	r29, 0x3e	; 62
     d26:	27 97       	sbiw	r28, 0x07	; 7
     d28:	0f b6       	in	r0, 0x3f	; 63
     d2a:	f8 94       	cli
     d2c:	de bf       	out	0x3e, r29	; 62
     d2e:	0f be       	out	0x3f, r0	; 63
     d30:	cd bf       	out	0x3d, r28	; 61
     d32:	8d 83       	std	Y+5, r24	; 0x05
     d34:	6e 83       	std	Y+6, r22	; 0x06
     d36:	4f 83       	std	Y+7, r20	; 0x07
     d38:	8d 81       	ldd	r24, Y+5	; 0x05
     d3a:	84 30       	cpi	r24, 0x04	; 4
     d3c:	70 f5       	brcc	.+92     	; 0xd9a <MAX7219_Write+0x7c>
     d3e:	b7 df       	rcall	.-146    	; 0xcae <MAX7219_Select>
     d40:	8d 81       	ldd	r24, Y+5	; 0x05
     d42:	88 2f       	mov	r24, r24
     d44:	90 e0       	ldi	r25, 0x00	; 0
     d46:	9a 83       	std	Y+2, r25	; 0x02
     d48:	89 83       	std	Y+1, r24	; 0x01
     d4a:	09 c0       	rjmp	.+18     	; 0xd5e <MAX7219_Write+0x40>
     d4c:	80 e0       	ldi	r24, 0x00	; 0
     d4e:	d1 df       	rcall	.-94     	; 0xcf2 <MAX7219_Tx>
     d50:	80 e0       	ldi	r24, 0x00	; 0
     d52:	cf df       	rcall	.-98     	; 0xcf2 <MAX7219_Tx>
     d54:	89 81       	ldd	r24, Y+1	; 0x01
     d56:	9a 81       	ldd	r25, Y+2	; 0x02
     d58:	01 96       	adiw	r24, 0x01	; 1
     d5a:	9a 83       	std	Y+2, r25	; 0x02
     d5c:	89 83       	std	Y+1, r24	; 0x01
     d5e:	89 81       	ldd	r24, Y+1	; 0x01
     d60:	9a 81       	ldd	r25, Y+2	; 0x02
     d62:	03 97       	sbiw	r24, 0x03	; 3
     d64:	9c f3       	brlt	.-26     	; 0xd4c <MAX7219_Write+0x2e>
     d66:	8e 81       	ldd	r24, Y+6	; 0x06
     d68:	c4 df       	rcall	.-120    	; 0xcf2 <MAX7219_Tx>
     d6a:	8f 81       	ldd	r24, Y+7	; 0x07
     d6c:	c2 df       	rcall	.-124    	; 0xcf2 <MAX7219_Tx>
     d6e:	1c 82       	std	Y+4, r1	; 0x04
     d70:	1b 82       	std	Y+3, r1	; 0x03
     d72:	09 c0       	rjmp	.+18     	; 0xd86 <MAX7219_Write+0x68>
     d74:	80 e0       	ldi	r24, 0x00	; 0
     d76:	bd df       	rcall	.-134    	; 0xcf2 <MAX7219_Tx>
     d78:	80 e0       	ldi	r24, 0x00	; 0
     d7a:	bb df       	rcall	.-138    	; 0xcf2 <MAX7219_Tx>
     d7c:	8b 81       	ldd	r24, Y+3	; 0x03
     d7e:	9c 81       	ldd	r25, Y+4	; 0x04
     d80:	01 96       	adiw	r24, 0x01	; 1
     d82:	9c 83       	std	Y+4, r25	; 0x04
     d84:	8b 83       	std	Y+3, r24	; 0x03
     d86:	8d 81       	ldd	r24, Y+5	; 0x05
     d88:	28 2f       	mov	r18, r24
     d8a:	30 e0       	ldi	r19, 0x00	; 0
     d8c:	8b 81       	ldd	r24, Y+3	; 0x03
     d8e:	9c 81       	ldd	r25, Y+4	; 0x04
     d90:	82 17       	cp	r24, r18
     d92:	93 07       	cpc	r25, r19
     d94:	7c f3       	brlt	.-34     	; 0xd74 <MAX7219_Write+0x56>
     d96:	9c df       	rcall	.-200    	; 0xcd0 <MAX7219_Deselect>
     d98:	01 c0       	rjmp	.+2      	; 0xd9c <MAX7219_Write+0x7e>
     d9a:	00 00       	nop
     d9c:	27 96       	adiw	r28, 0x07	; 7
     d9e:	0f b6       	in	r0, 0x3f	; 63
     da0:	f8 94       	cli
     da2:	de bf       	out	0x3e, r29	; 62
     da4:	0f be       	out	0x3f, r0	; 63
     da6:	cd bf       	out	0x3d, r28	; 61
     da8:	df 91       	pop	r29
     daa:	cf 91       	pop	r28
     dac:	08 95       	ret

00000dae <MAX7219_Digit>:
     dae:	cf 93       	push	r28
     db0:	df 93       	push	r29
     db2:	00 d0       	rcall	.+0      	; 0xdb4 <MAX7219_Digit+0x6>
     db4:	1f 92       	push	r1
     db6:	cd b7       	in	r28, 0x3d	; 61
     db8:	de b7       	in	r29, 0x3e	; 62
     dba:	89 83       	std	Y+1, r24	; 0x01
     dbc:	6a 83       	std	Y+2, r22	; 0x02
     dbe:	4b 83       	std	Y+3, r20	; 0x03
     dc0:	89 81       	ldd	r24, Y+1	; 0x01
     dc2:	84 30       	cpi	r24, 0x04	; 4
     dc4:	58 f4       	brcc	.+22     	; 0xddc <MAX7219_Digit+0x2e>
     dc6:	8a 81       	ldd	r24, Y+2	; 0x02
     dc8:	88 30       	cpi	r24, 0x08	; 8
     dca:	50 f4       	brcc	.+20     	; 0xde0 <MAX7219_Digit+0x32>
     dcc:	9b 81       	ldd	r25, Y+3	; 0x03
     dce:	8a 81       	ldd	r24, Y+2	; 0x02
     dd0:	8f 5f       	subi	r24, 0xFF	; 255
     dd2:	49 2f       	mov	r20, r25
     dd4:	68 2f       	mov	r22, r24
     dd6:	89 81       	ldd	r24, Y+1	; 0x01
     dd8:	a2 df       	rcall	.-188    	; 0xd1e <MAX7219_Write>
     dda:	03 c0       	rjmp	.+6      	; 0xde2 <MAX7219_Digit+0x34>
     ddc:	00 00       	nop
     dde:	01 c0       	rjmp	.+2      	; 0xde2 <MAX7219_Digit+0x34>
     de0:	00 00       	nop
     de2:	0f 90       	pop	r0
     de4:	0f 90       	pop	r0
     de6:	0f 90       	pop	r0
     de8:	df 91       	pop	r29
     dea:	cf 91       	pop	r28
     dec:	08 95       	ret

00000dee <MAX7219_Decode>:
     dee:	cf 93       	push	r28
     df0:	df 93       	push	r29
     df2:	00 d0       	rcall	.+0      	; 0xdf4 <MAX7219_Decode+0x6>
     df4:	cd b7       	in	r28, 0x3d	; 61
     df6:	de b7       	in	r29, 0x3e	; 62
     df8:	89 83       	std	Y+1, r24	; 0x01
     dfa:	6a 83       	std	Y+2, r22	; 0x02
     dfc:	89 81       	ldd	r24, Y+1	; 0x01
     dfe:	84 30       	cpi	r24, 0x04	; 4
     e00:	28 f4       	brcc	.+10     	; 0xe0c <MAX7219_Decode+0x1e>
     e02:	4a 81       	ldd	r20, Y+2	; 0x02
     e04:	69 e0       	ldi	r22, 0x09	; 9
     e06:	89 81       	ldd	r24, Y+1	; 0x01
     e08:	8a df       	rcall	.-236    	; 0xd1e <MAX7219_Write>
     e0a:	01 c0       	rjmp	.+2      	; 0xe0e <MAX7219_Decode+0x20>
     e0c:	00 00       	nop
     e0e:	0f 90       	pop	r0
     e10:	0f 90       	pop	r0
     e12:	df 91       	pop	r29
     e14:	cf 91       	pop	r28
     e16:	08 95       	ret

00000e18 <MAX7219_Intensity>:
     e18:	cf 93       	push	r28
     e1a:	df 93       	push	r29
     e1c:	00 d0       	rcall	.+0      	; 0xe1e <MAX7219_Intensity+0x6>
     e1e:	cd b7       	in	r28, 0x3d	; 61
     e20:	de b7       	in	r29, 0x3e	; 62
     e22:	89 83       	std	Y+1, r24	; 0x01
     e24:	6a 83       	std	Y+2, r22	; 0x02
     e26:	89 81       	ldd	r24, Y+1	; 0x01
     e28:	84 30       	cpi	r24, 0x04	; 4
     e2a:	50 f4       	brcc	.+20     	; 0xe40 <MAX7219_Intensity+0x28>
     e2c:	8a 81       	ldd	r24, Y+2	; 0x02
     e2e:	80 31       	cpi	r24, 0x10	; 16
     e30:	10 f0       	brcs	.+4      	; 0xe36 <MAX7219_Intensity+0x1e>
     e32:	8f e0       	ldi	r24, 0x0F	; 15
     e34:	8a 83       	std	Y+2, r24	; 0x02
     e36:	4a 81       	ldd	r20, Y+2	; 0x02
     e38:	6a e0       	ldi	r22, 0x0A	; 10
     e3a:	89 81       	ldd	r24, Y+1	; 0x01
     e3c:	70 df       	rcall	.-288    	; 0xd1e <MAX7219_Write>
     e3e:	01 c0       	rjmp	.+2      	; 0xe42 <MAX7219_Intensity+0x2a>
     e40:	00 00       	nop
     e42:	0f 90       	pop	r0
     e44:	0f 90       	pop	r0
     e46:	df 91       	pop	r29
     e48:	cf 91       	pop	r28
     e4a:	08 95       	ret

00000e4c <MAX7219_ScanLimit>:
     e4c:	cf 93       	push	r28
     e4e:	df 93       	push	r29
     e50:	00 d0       	rcall	.+0      	; 0xe52 <MAX7219_ScanLimit+0x6>
     e52:	cd b7       	in	r28, 0x3d	; 61
     e54:	de b7       	in	r29, 0x3e	; 62
     e56:	89 83       	std	Y+1, r24	; 0x01
     e58:	6a 83       	std	Y+2, r22	; 0x02
     e5a:	89 81       	ldd	r24, Y+1	; 0x01
     e5c:	84 30       	cpi	r24, 0x04	; 4
     e5e:	50 f4       	brcc	.+20     	; 0xe74 <MAX7219_ScanLimit+0x28>
     e60:	8a 81       	ldd	r24, Y+2	; 0x02
     e62:	88 30       	cpi	r24, 0x08	; 8
     e64:	10 f0       	brcs	.+4      	; 0xe6a <MAX7219_ScanLimit+0x1e>
     e66:	87 e0       	ldi	r24, 0x07	; 7
     e68:	8a 83       	std	Y+2, r24	; 0x02
     e6a:	4a 81       	ldd	r20, Y+2	; 0x02
     e6c:	6b e0       	ldi	r22, 0x0B	; 11
     e6e:	89 81       	ldd	r24, Y+1	; 0x01
     e70:	56 df       	rcall	.-340    	; 0xd1e <MAX7219_Write>
     e72:	01 c0       	rjmp	.+2      	; 0xe76 <MAX7219_ScanLimit+0x2a>
     e74:	00 00       	nop
     e76:	0f 90       	pop	r0
     e78:	0f 90       	pop	r0
     e7a:	df 91       	pop	r29
     e7c:	cf 91       	pop	r28
     e7e:	08 95       	ret

00000e80 <MAX7219_ShutDown>:
     e80:	cf 93       	push	r28
     e82:	df 93       	push	r29
     e84:	00 d0       	rcall	.+0      	; 0xe86 <MAX7219_ShutDown+0x6>
     e86:	cd b7       	in	r28, 0x3d	; 61
     e88:	de b7       	in	r29, 0x3e	; 62
     e8a:	89 83       	std	Y+1, r24	; 0x01
     e8c:	6a 83       	std	Y+2, r22	; 0x02
     e8e:	89 81       	ldd	r24, Y+1	; 0x01
     e90:	84 30       	cpi	r24, 0x04	; 4
     e92:	50 f4       	brcc	.+20     	; 0xea8 <MAX7219_ShutDown+0x28>
     e94:	8a 81       	ldd	r24, Y+2	; 0x02
     e96:	82 30       	cpi	r24, 0x02	; 2
     e98:	10 f0       	brcs	.+4      	; 0xe9e <MAX7219_ShutDown+0x1e>
     e9a:	81 e0       	ldi	r24, 0x01	; 1
     e9c:	8a 83       	std	Y+2, r24	; 0x02
     e9e:	4a 81       	ldd	r20, Y+2	; 0x02
     ea0:	6c e0       	ldi	r22, 0x0C	; 12
     ea2:	89 81       	ldd	r24, Y+1	; 0x01
     ea4:	3c df       	rcall	.-392    	; 0xd1e <MAX7219_Write>
     ea6:	01 c0       	rjmp	.+2      	; 0xeaa <MAX7219_ShutDown+0x2a>
     ea8:	00 00       	nop
     eaa:	0f 90       	pop	r0
     eac:	0f 90       	pop	r0
     eae:	df 91       	pop	r29
     eb0:	cf 91       	pop	r28
     eb2:	08 95       	ret

00000eb4 <MAX7219_Test>:
     eb4:	cf 93       	push	r28
     eb6:	df 93       	push	r29
     eb8:	00 d0       	rcall	.+0      	; 0xeba <MAX7219_Test+0x6>
     eba:	cd b7       	in	r28, 0x3d	; 61
     ebc:	de b7       	in	r29, 0x3e	; 62
     ebe:	89 83       	std	Y+1, r24	; 0x01
     ec0:	6a 83       	std	Y+2, r22	; 0x02
     ec2:	89 81       	ldd	r24, Y+1	; 0x01
     ec4:	84 30       	cpi	r24, 0x04	; 4
     ec6:	50 f4       	brcc	.+20     	; 0xedc <MAX7219_Test+0x28>
     ec8:	8a 81       	ldd	r24, Y+2	; 0x02
     eca:	82 30       	cpi	r24, 0x02	; 2
     ecc:	10 f0       	brcs	.+4      	; 0xed2 <MAX7219_Test+0x1e>
     ece:	81 e0       	ldi	r24, 0x01	; 1
     ed0:	8a 83       	std	Y+2, r24	; 0x02
     ed2:	4a 81       	ldd	r20, Y+2	; 0x02
     ed4:	6f e0       	ldi	r22, 0x0F	; 15
     ed6:	89 81       	ldd	r24, Y+1	; 0x01
     ed8:	22 df       	rcall	.-444    	; 0xd1e <MAX7219_Write>
     eda:	01 c0       	rjmp	.+2      	; 0xede <MAX7219_Test+0x2a>
     edc:	00 00       	nop
     ede:	0f 90       	pop	r0
     ee0:	0f 90       	pop	r0
     ee2:	df 91       	pop	r29
     ee4:	cf 91       	pop	r28
     ee6:	08 95       	ret

00000ee8 <Convert_Key_to_Note>:
     ee8:	cf 93       	push	r28
     eea:	df 93       	push	r29
     eec:	cd b7       	in	r28, 0x3d	; 61
     eee:	de b7       	in	r29, 0x3e	; 62
     ef0:	69 da       	rcall	.-2862   	; 0x3c4 <GetKeypadKey>
     ef2:	88 2f       	mov	r24, r24
     ef4:	90 e0       	ldi	r25, 0x00	; 0
     ef6:	09 2e       	mov	r0, r25
     ef8:	00 0c       	add	r0, r0
     efa:	aa 0b       	sbc	r26, r26
     efc:	bb 0b       	sbc	r27, r27
     efe:	40 e3       	ldi	r20, 0x30	; 48
     f00:	50 e0       	ldi	r21, 0x00	; 0
     f02:	29 e0       	ldi	r18, 0x09	; 9
     f04:	30 e0       	ldi	r19, 0x00	; 0
     f06:	84 1b       	sub	r24, r20
     f08:	95 0b       	sbc	r25, r21
     f0a:	28 17       	cp	r18, r24
     f0c:	39 07       	cpc	r19, r25
     f0e:	08 f4       	brcc	.+2      	; 0xf12 <Convert_Key_to_Note+0x2a>
     f10:	44 c0       	rjmp	.+136    	; 0xf9a <Convert_Key_to_Note+0xb2>
     f12:	8a 5b       	subi	r24, 0xBA	; 186
     f14:	9f 4f       	sbci	r25, 0xFF	; 255
     f16:	fc 01       	movw	r30, r24
     f18:	0c 94 ba 14 	jmp	0x2974	; 0x2974 <__tablejump2__>
     f1c:	80 e0       	ldi	r24, 0x00	; 0
     f1e:	90 ed       	ldi	r25, 0xD0	; 208
     f20:	a2 e0       	ldi	r26, 0x02	; 2
     f22:	b4 e4       	ldi	r27, 0x44	; 68
     f24:	3d c0       	rjmp	.+122    	; 0xfa0 <Convert_Key_to_Note+0xb8>
     f26:	8f e1       	ldi	r24, 0x1F	; 31
     f28:	95 ed       	ldi	r25, 0xD5	; 213
     f2a:	a2 e1       	ldi	r26, 0x12	; 18
     f2c:	b4 e4       	ldi	r27, 0x44	; 68
     f2e:	38 c0       	rjmp	.+112    	; 0xfa0 <Convert_Key_to_Note+0xb8>
     f30:	80 e0       	ldi	r24, 0x00	; 0
     f32:	90 ed       	ldi	r25, 0xD0	; 208
     f34:	a4 e2       	ldi	r26, 0x24	; 36
     f36:	b4 e4       	ldi	r27, 0x44	; 68
     f38:	33 c0       	rjmp	.+102    	; 0xfa0 <Convert_Key_to_Note+0xb8>
     f3a:	81 e7       	ldi	r24, 0x71	; 113
     f3c:	9d e9       	ldi	r25, 0x9D	; 157
     f3e:	ae e2       	ldi	r26, 0x2E	; 46
     f40:	b4 e4       	ldi	r27, 0x44	; 68
     f42:	2e c0       	rjmp	.+92     	; 0xfa0 <Convert_Key_to_Note+0xb8>
     f44:	80 91 bc 01 	lds	r24, 0x01BC	; 0x8001bc <mainState>
     f48:	83 30       	cpi	r24, 0x03	; 3
     f4a:	49 f4       	brne	.+18     	; 0xf5e <Convert_Key_to_Note+0x76>
     f4c:	80 91 8b 01 	lds	r24, 0x018B	; 0x80018b <sequence>
     f50:	8b 31       	cpi	r24, 0x1B	; 27
     f52:	28 f0       	brcs	.+10     	; 0xf5e <Convert_Key_to_Note+0x76>
     f54:	88 eb       	ldi	r24, 0xB8	; 184
     f56:	9e ef       	ldi	r25, 0xFE	; 254
     f58:	a3 ec       	ldi	r26, 0xC3	; 195
     f5a:	b3 e4       	ldi	r27, 0x43	; 67
     f5c:	21 c0       	rjmp	.+66     	; 0xfa0 <Convert_Key_to_Note+0xb8>
     f5e:	8c e5       	ldi	r24, 0x5C	; 92
     f60:	9f ef       	ldi	r25, 0xFF	; 255
     f62:	a3 e4       	ldi	r26, 0x43	; 67
     f64:	b4 e4       	ldi	r27, 0x44	; 68
     f66:	1c c0       	rjmp	.+56     	; 0xfa0 <Convert_Key_to_Note+0xb8>
     f68:	80 e0       	ldi	r24, 0x00	; 0
     f6a:	90 e0       	ldi	r25, 0x00	; 0
     f6c:	ac e5       	ldi	r26, 0x5C	; 92
     f6e:	b4 e4       	ldi	r27, 0x44	; 68
     f70:	17 c0       	rjmp	.+46     	; 0xfa0 <Convert_Key_to_Note+0xb8>
     f72:	88 e4       	ldi	r24, 0x48	; 72
     f74:	91 ef       	ldi	r25, 0xF1	; 241
     f76:	a6 e7       	ldi	r26, 0x76	; 118
     f78:	b4 e4       	ldi	r27, 0x44	; 68
     f7a:	12 c0       	rjmp	.+36     	; 0xfa0 <Convert_Key_to_Note+0xb8>
     f7c:	80 e0       	ldi	r24, 0x00	; 0
     f7e:	90 ed       	ldi	r25, 0xD0	; 208
     f80:	a2 e8       	ldi	r26, 0x82	; 130
     f82:	b4 e4       	ldi	r27, 0x44	; 68
     f84:	0d c0       	rjmp	.+26     	; 0xfa0 <Convert_Key_to_Note+0xb8>
     f86:	8f e1       	ldi	r24, 0x1F	; 31
     f88:	95 ed       	ldi	r25, 0xD5	; 213
     f8a:	a2 e9       	ldi	r26, 0x92	; 146
     f8c:	b4 e4       	ldi	r27, 0x44	; 68
     f8e:	08 c0       	rjmp	.+16     	; 0xfa0 <Convert_Key_to_Note+0xb8>
     f90:	82 e5       	ldi	r24, 0x52	; 82
     f92:	90 ed       	ldi	r25, 0xD0	; 208
     f94:	a4 ea       	ldi	r26, 0xA4	; 164
     f96:	b4 e4       	ldi	r27, 0x44	; 68
     f98:	03 c0       	rjmp	.+6      	; 0xfa0 <Convert_Key_to_Note+0xb8>
     f9a:	80 e0       	ldi	r24, 0x00	; 0
     f9c:	90 e0       	ldi	r25, 0x00	; 0
     f9e:	dc 01       	movw	r26, r24
     fa0:	bc 01       	movw	r22, r24
     fa2:	cd 01       	movw	r24, r26
     fa4:	df 91       	pop	r29
     fa6:	cf 91       	pop	r28
     fa8:	08 95       	ret

00000faa <set_PWM>:
     faa:	0f 93       	push	r16
     fac:	1f 93       	push	r17
     fae:	cf 93       	push	r28
     fb0:	df 93       	push	r29
     fb2:	00 d0       	rcall	.+0      	; 0xfb4 <set_PWM+0xa>
     fb4:	00 d0       	rcall	.+0      	; 0xfb6 <set_PWM+0xc>
     fb6:	cd b7       	in	r28, 0x3d	; 61
     fb8:	de b7       	in	r29, 0x3e	; 62
     fba:	69 83       	std	Y+1, r22	; 0x01
     fbc:	7a 83       	std	Y+2, r23	; 0x02
     fbe:	8b 83       	std	Y+3, r24	; 0x03
     fc0:	9c 83       	std	Y+4, r25	; 0x04
     fc2:	80 91 8e 01 	lds	r24, 0x018E	; 0x80018e <current_frequency.2656>
     fc6:	90 91 8f 01 	lds	r25, 0x018F	; 0x80018f <current_frequency.2656+0x1>
     fca:	a0 91 90 01 	lds	r26, 0x0190	; 0x800190 <current_frequency.2656+0x2>
     fce:	b0 91 91 01 	lds	r27, 0x0191	; 0x800191 <current_frequency.2656+0x3>
     fd2:	9c 01       	movw	r18, r24
     fd4:	ad 01       	movw	r20, r26
     fd6:	69 81       	ldd	r22, Y+1	; 0x01
     fd8:	7a 81       	ldd	r23, Y+2	; 0x02
     fda:	8b 81       	ldd	r24, Y+3	; 0x03
     fdc:	9c 81       	ldd	r25, Y+4	; 0x04
     fde:	0e 94 f1 12 	call	0x25e2	; 0x25e2 <__cmpsf2>
     fe2:	88 23       	and	r24, r24
     fe4:	09 f4       	brne	.+2      	; 0xfe8 <set_PWM+0x3e>
     fe6:	72 c0       	rjmp	.+228    	; 0x10cc <set_PWM+0x122>
     fe8:	20 e0       	ldi	r18, 0x00	; 0
     fea:	30 e0       	ldi	r19, 0x00	; 0
     fec:	a9 01       	movw	r20, r18
     fee:	69 81       	ldd	r22, Y+1	; 0x01
     ff0:	7a 81       	ldd	r23, Y+2	; 0x02
     ff2:	8b 81       	ldd	r24, Y+3	; 0x03
     ff4:	9c 81       	ldd	r25, Y+4	; 0x04
     ff6:	0e 94 f1 12 	call	0x25e2	; 0x25e2 <__cmpsf2>
     ffa:	88 23       	and	r24, r24
     ffc:	51 f4       	brne	.+20     	; 0x1012 <set_PWM+0x68>
     ffe:	85 e4       	ldi	r24, 0x45	; 69
    1000:	90 e0       	ldi	r25, 0x00	; 0
    1002:	25 e4       	ldi	r18, 0x45	; 69
    1004:	30 e0       	ldi	r19, 0x00	; 0
    1006:	f9 01       	movw	r30, r18
    1008:	20 81       	ld	r18, Z
    100a:	28 70       	andi	r18, 0x08	; 8
    100c:	fc 01       	movw	r30, r24
    100e:	20 83       	st	Z, r18
    1010:	09 c0       	rjmp	.+18     	; 0x1024 <set_PWM+0x7a>
    1012:	85 e4       	ldi	r24, 0x45	; 69
    1014:	90 e0       	ldi	r25, 0x00	; 0
    1016:	25 e4       	ldi	r18, 0x45	; 69
    1018:	30 e0       	ldi	r19, 0x00	; 0
    101a:	f9 01       	movw	r30, r18
    101c:	20 81       	ld	r18, Z
    101e:	23 60       	ori	r18, 0x03	; 3
    1020:	fc 01       	movw	r30, r24
    1022:	20 83       	st	Z, r18
    1024:	28 e5       	ldi	r18, 0x58	; 88
    1026:	39 e3       	ldi	r19, 0x39	; 57
    1028:	44 e7       	ldi	r20, 0x74	; 116
    102a:	5f e3       	ldi	r21, 0x3F	; 63
    102c:	69 81       	ldd	r22, Y+1	; 0x01
    102e:	7a 81       	ldd	r23, Y+2	; 0x02
    1030:	8b 81       	ldd	r24, Y+3	; 0x03
    1032:	9c 81       	ldd	r25, Y+4	; 0x04
    1034:	0e 94 f1 12 	call	0x25e2	; 0x25e2 <__cmpsf2>
    1038:	88 23       	and	r24, r24
    103a:	34 f4       	brge	.+12     	; 0x1048 <set_PWM+0x9e>
    103c:	87 e4       	ldi	r24, 0x47	; 71
    103e:	90 e0       	ldi	r25, 0x00	; 0
    1040:	2f ef       	ldi	r18, 0xFF	; 255
    1042:	fc 01       	movw	r30, r24
    1044:	20 83       	st	Z, r18
    1046:	32 c0       	rjmp	.+100    	; 0x10ac <set_PWM+0x102>
    1048:	20 e0       	ldi	r18, 0x00	; 0
    104a:	34 e2       	ldi	r19, 0x24	; 36
    104c:	44 ef       	ldi	r20, 0xF4	; 244
    104e:	56 e4       	ldi	r21, 0x46	; 70
    1050:	69 81       	ldd	r22, Y+1	; 0x01
    1052:	7a 81       	ldd	r23, Y+2	; 0x02
    1054:	8b 81       	ldd	r24, Y+3	; 0x03
    1056:	9c 81       	ldd	r25, Y+4	; 0x04
    1058:	0e 94 40 14 	call	0x2880	; 0x2880 <__gesf2>
    105c:	18 16       	cp	r1, r24
    105e:	2c f4       	brge	.+10     	; 0x106a <set_PWM+0xc0>
    1060:	87 e4       	ldi	r24, 0x47	; 71
    1062:	90 e0       	ldi	r25, 0x00	; 0
    1064:	fc 01       	movw	r30, r24
    1066:	10 82       	st	Z, r1
    1068:	21 c0       	rjmp	.+66     	; 0x10ac <set_PWM+0x102>
    106a:	07 e4       	ldi	r16, 0x47	; 71
    106c:	10 e0       	ldi	r17, 0x00	; 0
    106e:	20 e0       	ldi	r18, 0x00	; 0
    1070:	30 e0       	ldi	r19, 0x00	; 0
    1072:	40 e0       	ldi	r20, 0x00	; 0
    1074:	53 e4       	ldi	r21, 0x43	; 67
    1076:	69 81       	ldd	r22, Y+1	; 0x01
    1078:	7a 81       	ldd	r23, Y+2	; 0x02
    107a:	8b 81       	ldd	r24, Y+3	; 0x03
    107c:	9c 81       	ldd	r25, Y+4	; 0x04
    107e:	0e 94 44 14 	call	0x2888	; 0x2888 <__mulsf3>
    1082:	dc 01       	movw	r26, r24
    1084:	cb 01       	movw	r24, r22
    1086:	9c 01       	movw	r18, r24
    1088:	ad 01       	movw	r20, r26
    108a:	60 e0       	ldi	r22, 0x00	; 0
    108c:	74 e2       	ldi	r23, 0x24	; 36
    108e:	84 ef       	ldi	r24, 0xF4	; 244
    1090:	9a e4       	ldi	r25, 0x4A	; 74
    1092:	0e 94 f5 12 	call	0x25ea	; 0x25ea <__divsf3>
    1096:	dc 01       	movw	r26, r24
    1098:	cb 01       	movw	r24, r22
    109a:	bc 01       	movw	r22, r24
    109c:	cd 01       	movw	r24, r26
    109e:	0e 94 5d 13 	call	0x26ba	; 0x26ba <__fixsfsi>
    10a2:	dc 01       	movw	r26, r24
    10a4:	cb 01       	movw	r24, r22
    10a6:	81 50       	subi	r24, 0x01	; 1
    10a8:	f8 01       	movw	r30, r16
    10aa:	80 83       	st	Z, r24
    10ac:	86 e4       	ldi	r24, 0x46	; 70
    10ae:	90 e0       	ldi	r25, 0x00	; 0
    10b0:	fc 01       	movw	r30, r24
    10b2:	10 82       	st	Z, r1
    10b4:	89 81       	ldd	r24, Y+1	; 0x01
    10b6:	9a 81       	ldd	r25, Y+2	; 0x02
    10b8:	ab 81       	ldd	r26, Y+3	; 0x03
    10ba:	bc 81       	ldd	r27, Y+4	; 0x04
    10bc:	80 93 8e 01 	sts	0x018E, r24	; 0x80018e <current_frequency.2656>
    10c0:	90 93 8f 01 	sts	0x018F, r25	; 0x80018f <current_frequency.2656+0x1>
    10c4:	a0 93 90 01 	sts	0x0190, r26	; 0x800190 <current_frequency.2656+0x2>
    10c8:	b0 93 91 01 	sts	0x0191, r27	; 0x800191 <current_frequency.2656+0x3>
    10cc:	00 00       	nop
    10ce:	0f 90       	pop	r0
    10d0:	0f 90       	pop	r0
    10d2:	0f 90       	pop	r0
    10d4:	0f 90       	pop	r0
    10d6:	df 91       	pop	r29
    10d8:	cf 91       	pop	r28
    10da:	1f 91       	pop	r17
    10dc:	0f 91       	pop	r16
    10de:	08 95       	ret

000010e0 <PWM_on>:
    10e0:	cf 93       	push	r28
    10e2:	df 93       	push	r29
    10e4:	cd b7       	in	r28, 0x3d	; 61
    10e6:	de b7       	in	r29, 0x3e	; 62
    10e8:	84 e4       	ldi	r24, 0x44	; 68
    10ea:	90 e0       	ldi	r25, 0x00	; 0
    10ec:	21 e4       	ldi	r18, 0x41	; 65
    10ee:	fc 01       	movw	r30, r24
    10f0:	20 83       	st	Z, r18
    10f2:	85 e4       	ldi	r24, 0x45	; 69
    10f4:	90 e0       	ldi	r25, 0x00	; 0
    10f6:	2b e0       	ldi	r18, 0x0B	; 11
    10f8:	fc 01       	movw	r30, r24
    10fa:	20 83       	st	Z, r18
    10fc:	60 e0       	ldi	r22, 0x00	; 0
    10fe:	70 e0       	ldi	r23, 0x00	; 0
    1100:	cb 01       	movw	r24, r22
    1102:	53 df       	rcall	.-346    	; 0xfaa <set_PWM>
    1104:	00 00       	nop
    1106:	df 91       	pop	r29
    1108:	cf 91       	pop	r28
    110a:	08 95       	ret

0000110c <displayBlank>:
    110c:	cf 93       	push	r28
    110e:	df 93       	push	r29
    1110:	cd b7       	in	r28, 0x3d	; 61
    1112:	de b7       	in	r29, 0x3e	; 62
    1114:	0e db       	rcall	.-2532   	; 0x732 <MAX7219_MatrixInit>
    1116:	5e dd       	rcall	.-1348   	; 0xbd4 <MAX7219_MatrixUpdate>
    1118:	00 00       	nop
    111a:	df 91       	pop	r29
    111c:	cf 91       	pop	r28
    111e:	08 95       	ret

00001120 <displayTitle>:
    1120:	8f 92       	push	r8
    1122:	9f 92       	push	r9
    1124:	af 92       	push	r10
    1126:	bf 92       	push	r11
    1128:	cf 92       	push	r12
    112a:	df 92       	push	r13
    112c:	ef 92       	push	r14
    112e:	ff 92       	push	r15
    1130:	0f 93       	push	r16
    1132:	1f 93       	push	r17
    1134:	cf 93       	push	r28
    1136:	df 93       	push	r29
    1138:	cd b7       	in	r28, 0x3d	; 61
    113a:	de b7       	in	r29, 0x3e	; 62
    113c:	fa da       	rcall	.-2572   	; 0x732 <MAX7219_MatrixInit>
    113e:	81 2c       	mov	r8, r1
    1140:	91 2c       	mov	r9, r1
    1142:	a1 2c       	mov	r10, r1
    1144:	0f 2e       	mov	r0, r31
    1146:	fa e7       	ldi	r31, 0x7A	; 122
    1148:	bf 2e       	mov	r11, r31
    114a:	f0 2d       	mov	r31, r0
    114c:	0f 2e       	mov	r0, r31
    114e:	fa e0       	ldi	r31, 0x0A	; 10
    1150:	cf 2e       	mov	r12, r31
    1152:	f0 2d       	mov	r31, r0
    1154:	0f 2e       	mov	r0, r31
    1156:	fa e3       	ldi	r31, 0x3A	; 58
    1158:	df 2e       	mov	r13, r31
    115a:	f0 2d       	mov	r31, r0
    115c:	0f 2e       	mov	r0, r31
    115e:	fa e0       	ldi	r31, 0x0A	; 10
    1160:	ef 2e       	mov	r14, r31
    1162:	f0 2d       	mov	r31, r0
    1164:	0f 2e       	mov	r0, r31
    1166:	fa e7       	ldi	r31, 0x7A	; 122
    1168:	ff 2e       	mov	r15, r31
    116a:	f0 2d       	mov	r31, r0
    116c:	08 2d       	mov	r16, r8
    116e:	19 2d       	mov	r17, r9
    1170:	2a 2d       	mov	r18, r10
    1172:	3b 2d       	mov	r19, r11
    1174:	4c 2d       	mov	r20, r12
    1176:	5d 2d       	mov	r21, r13
    1178:	6e 2d       	mov	r22, r14
    117a:	7f 2d       	mov	r23, r15
    117c:	80 e0       	ldi	r24, 0x00	; 0
    117e:	30 db       	rcall	.-2464   	; 0x7e0 <MAX7219_MatrixSetRow64>
    1180:	81 2c       	mov	r8, r1
    1182:	91 2c       	mov	r9, r1
    1184:	a1 2c       	mov	r10, r1
    1186:	0f 2e       	mov	r0, r31
    1188:	f3 e7       	ldi	r31, 0x73	; 115
    118a:	bf 2e       	mov	r11, r31
    118c:	f0 2d       	mov	r31, r0
    118e:	0f 2e       	mov	r0, r31
    1190:	f4 e9       	ldi	r31, 0x94	; 148
    1192:	cf 2e       	mov	r12, r31
    1194:	f0 2d       	mov	r31, r0
    1196:	0f 2e       	mov	r0, r31
    1198:	f4 e9       	ldi	r31, 0x94	; 148
    119a:	df 2e       	mov	r13, r31
    119c:	f0 2d       	mov	r31, r0
    119e:	0f 2e       	mov	r0, r31
    11a0:	f4 e9       	ldi	r31, 0x94	; 148
    11a2:	ef 2e       	mov	r14, r31
    11a4:	f0 2d       	mov	r31, r0
    11a6:	0f 2e       	mov	r0, r31
    11a8:	f3 e7       	ldi	r31, 0x73	; 115
    11aa:	ff 2e       	mov	r15, r31
    11ac:	f0 2d       	mov	r31, r0
    11ae:	08 2d       	mov	r16, r8
    11b0:	19 2d       	mov	r17, r9
    11b2:	2a 2d       	mov	r18, r10
    11b4:	3b 2d       	mov	r19, r11
    11b6:	4c 2d       	mov	r20, r12
    11b8:	5d 2d       	mov	r21, r13
    11ba:	6e 2d       	mov	r22, r14
    11bc:	7f 2d       	mov	r23, r15
    11be:	81 e0       	ldi	r24, 0x01	; 1
    11c0:	0f db       	rcall	.-2530   	; 0x7e0 <MAX7219_MatrixSetRow64>
    11c2:	81 2c       	mov	r8, r1
    11c4:	91 2c       	mov	r9, r1
    11c6:	a1 2c       	mov	r10, r1
    11c8:	0f 2e       	mov	r0, r31
    11ca:	fb e0       	ldi	r31, 0x0B	; 11
    11cc:	bf 2e       	mov	r11, r31
    11ce:	f0 2d       	mov	r31, r0
    11d0:	0f 2e       	mov	r0, r31
    11d2:	f8 e8       	ldi	r31, 0x88	; 136
    11d4:	cf 2e       	mov	r12, r31
    11d6:	f0 2d       	mov	r31, r0
    11d8:	0f 2e       	mov	r0, r31
    11da:	f9 e8       	ldi	r31, 0x89	; 137
    11dc:	df 2e       	mov	r13, r31
    11de:	f0 2d       	mov	r31, r0
    11e0:	0f 2e       	mov	r0, r31
    11e2:	f8 e8       	ldi	r31, 0x88	; 136
    11e4:	ef 2e       	mov	r14, r31
    11e6:	f0 2d       	mov	r31, r0
    11e8:	0f 2e       	mov	r0, r31
    11ea:	fb e3       	ldi	r31, 0x3B	; 59
    11ec:	ff 2e       	mov	r15, r31
    11ee:	f0 2d       	mov	r31, r0
    11f0:	08 2d       	mov	r16, r8
    11f2:	19 2d       	mov	r17, r9
    11f4:	2a 2d       	mov	r18, r10
    11f6:	3b 2d       	mov	r19, r11
    11f8:	4c 2d       	mov	r20, r12
    11fa:	5d 2d       	mov	r21, r13
    11fc:	6e 2d       	mov	r22, r14
    11fe:	7f 2d       	mov	r23, r15
    1200:	82 e0       	ldi	r24, 0x02	; 2
    1202:	ee da       	rcall	.-2596   	; 0x7e0 <MAX7219_MatrixSetRow64>
    1204:	81 2c       	mov	r8, r1
    1206:	91 2c       	mov	r9, r1
    1208:	a1 2c       	mov	r10, r1
    120a:	0f 2e       	mov	r0, r31
    120c:	f1 ed       	ldi	r31, 0xD1	; 209
    120e:	bf 2e       	mov	r11, r31
    1210:	f0 2d       	mov	r31, r0
    1212:	0f 2e       	mov	r0, r31
    1214:	fb e5       	ldi	r31, 0x5B	; 91
    1216:	cf 2e       	mov	r12, r31
    1218:	f0 2d       	mov	r31, r0
    121a:	0f 2e       	mov	r0, r31
    121c:	f5 ed       	ldi	r31, 0xD5	; 213
    121e:	df 2e       	mov	r13, r31
    1220:	f0 2d       	mov	r31, r0
    1222:	0f 2e       	mov	r0, r31
    1224:	f1 e5       	ldi	r31, 0x51	; 81
    1226:	ef 2e       	mov	r14, r31
    1228:	f0 2d       	mov	r31, r0
    122a:	0f 2e       	mov	r0, r31
    122c:	f1 ed       	ldi	r31, 0xD1	; 209
    122e:	ff 2e       	mov	r15, r31
    1230:	f0 2d       	mov	r31, r0
    1232:	08 2d       	mov	r16, r8
    1234:	19 2d       	mov	r17, r9
    1236:	2a 2d       	mov	r18, r10
    1238:	3b 2d       	mov	r19, r11
    123a:	4c 2d       	mov	r20, r12
    123c:	5d 2d       	mov	r21, r13
    123e:	6e 2d       	mov	r22, r14
    1240:	7f 2d       	mov	r23, r15
    1242:	83 e0       	ldi	r24, 0x03	; 3
    1244:	cd da       	rcall	.-2662   	; 0x7e0 <MAX7219_MatrixSetRow64>
    1246:	c6 dc       	rcall	.-1652   	; 0xbd4 <MAX7219_MatrixUpdate>
    1248:	00 00       	nop
    124a:	df 91       	pop	r29
    124c:	cf 91       	pop	r28
    124e:	1f 91       	pop	r17
    1250:	0f 91       	pop	r16
    1252:	ff 90       	pop	r15
    1254:	ef 90       	pop	r14
    1256:	df 90       	pop	r13
    1258:	cf 90       	pop	r12
    125a:	bf 90       	pop	r11
    125c:	af 90       	pop	r10
    125e:	9f 90       	pop	r9
    1260:	8f 90       	pop	r8
    1262:	08 95       	ret

00001264 <displayFin>:
    1264:	8f 92       	push	r8
    1266:	9f 92       	push	r9
    1268:	af 92       	push	r10
    126a:	bf 92       	push	r11
    126c:	cf 92       	push	r12
    126e:	df 92       	push	r13
    1270:	ef 92       	push	r14
    1272:	ff 92       	push	r15
    1274:	0f 93       	push	r16
    1276:	1f 93       	push	r17
    1278:	cf 93       	push	r28
    127a:	df 93       	push	r29
    127c:	cd b7       	in	r28, 0x3d	; 61
    127e:	de b7       	in	r29, 0x3e	; 62
    1280:	58 da       	rcall	.-2896   	; 0x732 <MAX7219_MatrixInit>
    1282:	81 2c       	mov	r8, r1
    1284:	0f 2e       	mov	r0, r31
    1286:	f6 e6       	ldi	r31, 0x66	; 102
    1288:	9f 2e       	mov	r9, r31
    128a:	f0 2d       	mov	r31, r0
    128c:	0f 2e       	mov	r0, r31
    128e:	f6 e6       	ldi	r31, 0x66	; 102
    1290:	af 2e       	mov	r10, r31
    1292:	f0 2d       	mov	r31, r0
    1294:	0f 2e       	mov	r0, r31
    1296:	f6 e6       	ldi	r31, 0x66	; 102
    1298:	bf 2e       	mov	r11, r31
    129a:	f0 2d       	mov	r31, r0
    129c:	0f 2e       	mov	r0, r31
    129e:	f6 e6       	ldi	r31, 0x66	; 102
    12a0:	cf 2e       	mov	r12, r31
    12a2:	f0 2d       	mov	r31, r0
    12a4:	d1 2c       	mov	r13, r1
    12a6:	0f 2e       	mov	r0, r31
    12a8:	f6 e6       	ldi	r31, 0x66	; 102
    12aa:	ef 2e       	mov	r14, r31
    12ac:	f0 2d       	mov	r31, r0
    12ae:	0f 2e       	mov	r0, r31
    12b0:	f6 e6       	ldi	r31, 0x66	; 102
    12b2:	ff 2e       	mov	r15, r31
    12b4:	f0 2d       	mov	r31, r0
    12b6:	08 2d       	mov	r16, r8
    12b8:	19 2d       	mov	r17, r9
    12ba:	2a 2d       	mov	r18, r10
    12bc:	3b 2d       	mov	r19, r11
    12be:	4c 2d       	mov	r20, r12
    12c0:	5d 2d       	mov	r21, r13
    12c2:	6e 2d       	mov	r22, r14
    12c4:	7f 2d       	mov	r23, r15
    12c6:	80 e0       	ldi	r24, 0x00	; 0
    12c8:	8b da       	rcall	.-2794   	; 0x7e0 <MAX7219_MatrixSetRow64>
    12ca:	81 2c       	mov	r8, r1
    12cc:	0f 2e       	mov	r0, r31
    12ce:	f6 ec       	ldi	r31, 0xC6	; 198
    12d0:	9f 2e       	mov	r9, r31
    12d2:	f0 2d       	mov	r31, r0
    12d4:	0f 2e       	mov	r0, r31
    12d6:	fe ec       	ldi	r31, 0xCE	; 206
    12d8:	af 2e       	mov	r10, r31
    12da:	f0 2d       	mov	r31, r0
    12dc:	0f 2e       	mov	r0, r31
    12de:	fe ed       	ldi	r31, 0xDE	; 222
    12e0:	bf 2e       	mov	r11, r31
    12e2:	f0 2d       	mov	r31, r0
    12e4:	0f 2e       	mov	r0, r31
    12e6:	f6 ef       	ldi	r31, 0xF6	; 246
    12e8:	cf 2e       	mov	r12, r31
    12ea:	f0 2d       	mov	r31, r0
    12ec:	0f 2e       	mov	r0, r31
    12ee:	f6 ee       	ldi	r31, 0xE6	; 230
    12f0:	df 2e       	mov	r13, r31
    12f2:	f0 2d       	mov	r31, r0
    12f4:	0f 2e       	mov	r0, r31
    12f6:	f6 ec       	ldi	r31, 0xC6	; 198
    12f8:	ef 2e       	mov	r14, r31
    12fa:	f0 2d       	mov	r31, r0
    12fc:	0f 2e       	mov	r0, r31
    12fe:	f6 ec       	ldi	r31, 0xC6	; 198
    1300:	ff 2e       	mov	r15, r31
    1302:	f0 2d       	mov	r31, r0
    1304:	08 2d       	mov	r16, r8
    1306:	19 2d       	mov	r17, r9
    1308:	2a 2d       	mov	r18, r10
    130a:	3b 2d       	mov	r19, r11
    130c:	4c 2d       	mov	r20, r12
    130e:	5d 2d       	mov	r21, r13
    1310:	6e 2d       	mov	r22, r14
    1312:	7f 2d       	mov	r23, r15
    1314:	81 e0       	ldi	r24, 0x01	; 1
    1316:	64 da       	rcall	.-2872   	; 0x7e0 <MAX7219_MatrixSetRow64>
    1318:	81 2c       	mov	r8, r1
    131a:	0f 2e       	mov	r0, r31
    131c:	fc e3       	ldi	r31, 0x3C	; 60
    131e:	9f 2e       	mov	r9, r31
    1320:	f0 2d       	mov	r31, r0
    1322:	0f 2e       	mov	r0, r31
    1324:	f8 e1       	ldi	r31, 0x18	; 24
    1326:	af 2e       	mov	r10, r31
    1328:	f0 2d       	mov	r31, r0
    132a:	0f 2e       	mov	r0, r31
    132c:	f8 e1       	ldi	r31, 0x18	; 24
    132e:	bf 2e       	mov	r11, r31
    1330:	f0 2d       	mov	r31, r0
    1332:	0f 2e       	mov	r0, r31
    1334:	f8 e1       	ldi	r31, 0x18	; 24
    1336:	cf 2e       	mov	r12, r31
    1338:	f0 2d       	mov	r31, r0
    133a:	0f 2e       	mov	r0, r31
    133c:	f8 e1       	ldi	r31, 0x18	; 24
    133e:	df 2e       	mov	r13, r31
    1340:	f0 2d       	mov	r31, r0
    1342:	0f 2e       	mov	r0, r31
    1344:	f8 e1       	ldi	r31, 0x18	; 24
    1346:	ef 2e       	mov	r14, r31
    1348:	f0 2d       	mov	r31, r0
    134a:	0f 2e       	mov	r0, r31
    134c:	fc e3       	ldi	r31, 0x3C	; 60
    134e:	ff 2e       	mov	r15, r31
    1350:	f0 2d       	mov	r31, r0
    1352:	08 2d       	mov	r16, r8
    1354:	19 2d       	mov	r17, r9
    1356:	2a 2d       	mov	r18, r10
    1358:	3b 2d       	mov	r19, r11
    135a:	4c 2d       	mov	r20, r12
    135c:	5d 2d       	mov	r21, r13
    135e:	6e 2d       	mov	r22, r14
    1360:	7f 2d       	mov	r23, r15
    1362:	82 e0       	ldi	r24, 0x02	; 2
    1364:	3d da       	rcall	.-2950   	; 0x7e0 <MAX7219_MatrixSetRow64>
    1366:	81 2c       	mov	r8, r1
    1368:	0f 2e       	mov	r0, r31
    136a:	fe e7       	ldi	r31, 0x7E	; 126
    136c:	9f 2e       	mov	r9, r31
    136e:	f0 2d       	mov	r31, r0
    1370:	0f 2e       	mov	r0, r31
    1372:	f6 e0       	ldi	r31, 0x06	; 6
    1374:	af 2e       	mov	r10, r31
    1376:	f0 2d       	mov	r31, r0
    1378:	0f 2e       	mov	r0, r31
    137a:	f6 e0       	ldi	r31, 0x06	; 6
    137c:	bf 2e       	mov	r11, r31
    137e:	f0 2d       	mov	r31, r0
    1380:	0f 2e       	mov	r0, r31
    1382:	fe e3       	ldi	r31, 0x3E	; 62
    1384:	cf 2e       	mov	r12, r31
    1386:	f0 2d       	mov	r31, r0
    1388:	0f 2e       	mov	r0, r31
    138a:	f6 e0       	ldi	r31, 0x06	; 6
    138c:	df 2e       	mov	r13, r31
    138e:	f0 2d       	mov	r31, r0
    1390:	0f 2e       	mov	r0, r31
    1392:	f6 e0       	ldi	r31, 0x06	; 6
    1394:	ef 2e       	mov	r14, r31
    1396:	f0 2d       	mov	r31, r0
    1398:	0f 2e       	mov	r0, r31
    139a:	f6 e0       	ldi	r31, 0x06	; 6
    139c:	ff 2e       	mov	r15, r31
    139e:	f0 2d       	mov	r31, r0
    13a0:	08 2d       	mov	r16, r8
    13a2:	19 2d       	mov	r17, r9
    13a4:	2a 2d       	mov	r18, r10
    13a6:	3b 2d       	mov	r19, r11
    13a8:	4c 2d       	mov	r20, r12
    13aa:	5d 2d       	mov	r21, r13
    13ac:	6e 2d       	mov	r22, r14
    13ae:	7f 2d       	mov	r23, r15
    13b0:	83 e0       	ldi	r24, 0x03	; 3
    13b2:	16 da       	rcall	.-3028   	; 0x7e0 <MAX7219_MatrixSetRow64>
    13b4:	0f dc       	rcall	.-2018   	; 0xbd4 <MAX7219_MatrixUpdate>
    13b6:	00 00       	nop
    13b8:	df 91       	pop	r29
    13ba:	cf 91       	pop	r28
    13bc:	1f 91       	pop	r17
    13be:	0f 91       	pop	r16
    13c0:	ff 90       	pop	r15
    13c2:	ef 90       	pop	r14
    13c4:	df 90       	pop	r13
    13c6:	cf 90       	pop	r12
    13c8:	bf 90       	pop	r11
    13ca:	af 90       	pop	r10
    13cc:	9f 90       	pop	r9
    13ce:	8f 90       	pop	r8
    13d0:	08 95       	ret

000013d2 <displayRank>:
    13d2:	8f 92       	push	r8
    13d4:	9f 92       	push	r9
    13d6:	af 92       	push	r10
    13d8:	bf 92       	push	r11
    13da:	cf 92       	push	r12
    13dc:	df 92       	push	r13
    13de:	ef 92       	push	r14
    13e0:	ff 92       	push	r15
    13e2:	0f 93       	push	r16
    13e4:	1f 93       	push	r17
    13e6:	cf 93       	push	r28
    13e8:	df 93       	push	r29
    13ea:	cd b7       	in	r28, 0x3d	; 61
    13ec:	de b7       	in	r29, 0x3e	; 62
    13ee:	a1 d9       	rcall	.-3262   	; 0x732 <MAX7219_MatrixInit>
    13f0:	81 2c       	mov	r8, r1
    13f2:	91 2c       	mov	r9, r1
    13f4:	a1 2c       	mov	r10, r1
    13f6:	0f 2e       	mov	r0, r31
    13f8:	f7 ec       	ldi	r31, 0xC7	; 199
    13fa:	bf 2e       	mov	r11, r31
    13fc:	f0 2d       	mov	r31, r0
    13fe:	0f 2e       	mov	r0, r31
    1400:	f9 e2       	ldi	r31, 0x29	; 41
    1402:	cf 2e       	mov	r12, r31
    1404:	f0 2d       	mov	r31, r0
    1406:	0f 2e       	mov	r0, r31
    1408:	f7 ee       	ldi	r31, 0xE7	; 231
    140a:	df 2e       	mov	r13, r31
    140c:	f0 2d       	mov	r31, r0
    140e:	0f 2e       	mov	r0, r31
    1410:	f5 e2       	ldi	r31, 0x25	; 37
    1412:	ef 2e       	mov	r14, r31
    1414:	f0 2d       	mov	r31, r0
    1416:	0f 2e       	mov	r0, r31
    1418:	f9 e2       	ldi	r31, 0x29	; 41
    141a:	ff 2e       	mov	r15, r31
    141c:	f0 2d       	mov	r31, r0
    141e:	08 2d       	mov	r16, r8
    1420:	19 2d       	mov	r17, r9
    1422:	2a 2d       	mov	r18, r10
    1424:	3b 2d       	mov	r19, r11
    1426:	4c 2d       	mov	r20, r12
    1428:	5d 2d       	mov	r21, r13
    142a:	6e 2d       	mov	r22, r14
    142c:	7f 2d       	mov	r23, r15
    142e:	83 e0       	ldi	r24, 0x03	; 3
    1430:	d7 d9       	rcall	.-3154   	; 0x7e0 <MAX7219_MatrixSetRow64>
    1432:	81 2c       	mov	r8, r1
    1434:	91 2c       	mov	r9, r1
    1436:	a1 2c       	mov	r10, r1
    1438:	0f 2e       	mov	r0, r31
    143a:	f4 ea       	ldi	r31, 0xA4	; 164
    143c:	bf 2e       	mov	r11, r31
    143e:	f0 2d       	mov	r31, r0
    1440:	0f 2e       	mov	r0, r31
    1442:	fd ea       	ldi	r31, 0xAD	; 173
    1444:	cf 2e       	mov	r12, r31
    1446:	f0 2d       	mov	r31, r0
    1448:	0f 2e       	mov	r0, r31
    144a:	f5 eb       	ldi	r31, 0xB5	; 181
    144c:	df 2e       	mov	r13, r31
    144e:	f0 2d       	mov	r31, r0
    1450:	0f 2e       	mov	r0, r31
    1452:	f5 ea       	ldi	r31, 0xA5	; 165
    1454:	ef 2e       	mov	r14, r31
    1456:	f0 2d       	mov	r31, r0
    1458:	0f 2e       	mov	r0, r31
    145a:	f5 ea       	ldi	r31, 0xA5	; 165
    145c:	ff 2e       	mov	r15, r31
    145e:	f0 2d       	mov	r31, r0
    1460:	08 2d       	mov	r16, r8
    1462:	19 2d       	mov	r17, r9
    1464:	2a 2d       	mov	r18, r10
    1466:	3b 2d       	mov	r19, r11
    1468:	4c 2d       	mov	r20, r12
    146a:	5d 2d       	mov	r21, r13
    146c:	6e 2d       	mov	r22, r14
    146e:	7f 2d       	mov	r23, r15
    1470:	82 e0       	ldi	r24, 0x02	; 2
    1472:	b6 d9       	rcall	.-3220   	; 0x7e0 <MAX7219_MatrixSetRow64>
    1474:	81 2c       	mov	r8, r1
    1476:	91 2c       	mov	r9, r1
    1478:	a1 2c       	mov	r10, r1
    147a:	68 94       	set
    147c:	bb 24       	eor	r11, r11
    147e:	b2 f8       	bld	r11, 2
    1480:	0f 2e       	mov	r0, r31
    1482:	f2 e7       	ldi	r31, 0x72	; 114
    1484:	cf 2e       	mov	r12, r31
    1486:	f0 2d       	mov	r31, r0
    1488:	dd 24       	eor	r13, r13
    148a:	d3 94       	inc	r13
    148c:	0f 2e       	mov	r0, r31
    148e:	f2 e7       	ldi	r31, 0x72	; 114
    1490:	ef 2e       	mov	r14, r31
    1492:	f0 2d       	mov	r31, r0
    1494:	68 94       	set
    1496:	ff 24       	eor	r15, r15
    1498:	f2 f8       	bld	r15, 2
    149a:	08 2d       	mov	r16, r8
    149c:	19 2d       	mov	r17, r9
    149e:	2a 2d       	mov	r18, r10
    14a0:	3b 2d       	mov	r19, r11
    14a2:	4c 2d       	mov	r20, r12
    14a4:	5d 2d       	mov	r21, r13
    14a6:	6e 2d       	mov	r22, r14
    14a8:	7f 2d       	mov	r23, r15
    14aa:	81 e0       	ldi	r24, 0x01	; 1
    14ac:	99 d9       	rcall	.-3278   	; 0x7e0 <MAX7219_MatrixSetRow64>
    14ae:	80 91 04 01 	lds	r24, 0x0104	; 0x800104 <scoreA>
    14b2:	90 91 05 01 	lds	r25, 0x0105	; 0x800105 <scoreA+0x1>
    14b6:	f2 d0       	rcall	.+484    	; 0x169c <rank_analyse>
    14b8:	82 2e       	mov	r8, r18
    14ba:	93 2e       	mov	r9, r19
    14bc:	a4 2e       	mov	r10, r20
    14be:	b5 2e       	mov	r11, r21
    14c0:	c6 2e       	mov	r12, r22
    14c2:	d7 2e       	mov	r13, r23
    14c4:	e8 2e       	mov	r14, r24
    14c6:	f9 2e       	mov	r15, r25
    14c8:	08 2d       	mov	r16, r8
    14ca:	19 2d       	mov	r17, r9
    14cc:	2a 2d       	mov	r18, r10
    14ce:	3b 2d       	mov	r19, r11
    14d0:	4c 2d       	mov	r20, r12
    14d2:	5d 2d       	mov	r21, r13
    14d4:	6e 2d       	mov	r22, r14
    14d6:	7f 2d       	mov	r23, r15
    14d8:	80 e0       	ldi	r24, 0x00	; 0
    14da:	82 d9       	rcall	.-3324   	; 0x7e0 <MAX7219_MatrixSetRow64>
    14dc:	7b db       	rcall	.-2314   	; 0xbd4 <MAX7219_MatrixUpdate>
    14de:	00 00       	nop
    14e0:	df 91       	pop	r29
    14e2:	cf 91       	pop	r28
    14e4:	1f 91       	pop	r17
    14e6:	0f 91       	pop	r16
    14e8:	ff 90       	pop	r15
    14ea:	ef 90       	pop	r14
    14ec:	df 90       	pop	r13
    14ee:	cf 90       	pop	r12
    14f0:	bf 90       	pop	r11
    14f2:	af 90       	pop	r10
    14f4:	9f 90       	pop	r9
    14f6:	8f 90       	pop	r8
    14f8:	08 95       	ret

000014fa <waitTime>:
    14fa:	cf 93       	push	r28
    14fc:	df 93       	push	r29
    14fe:	00 d0       	rcall	.+0      	; 0x1500 <waitTime+0x6>
    1500:	00 d0       	rcall	.+0      	; 0x1502 <waitTime+0x8>
    1502:	cd b7       	in	r28, 0x3d	; 61
    1504:	de b7       	in	r29, 0x3e	; 62
    1506:	9c 83       	std	Y+4, r25	; 0x04
    1508:	8b 83       	std	Y+3, r24	; 0x03
    150a:	1a 82       	std	Y+2, r1	; 0x02
    150c:	19 82       	std	Y+1, r1	; 0x01
    150e:	0c c0       	rjmp	.+24     	; 0x1528 <waitTime+0x2e>
    1510:	89 81       	ldd	r24, Y+1	; 0x01
    1512:	9a 81       	ldd	r25, Y+2	; 0x02
    1514:	01 96       	adiw	r24, 0x01	; 1
    1516:	9a 83       	std	Y+2, r25	; 0x02
    1518:	89 83       	std	Y+1, r24	; 0x01
    151a:	00 00       	nop
    151c:	80 91 86 01 	lds	r24, 0x0186	; 0x800186 <__data_end>
    1520:	88 23       	and	r24, r24
    1522:	e1 f3       	breq	.-8      	; 0x151c <waitTime+0x22>
    1524:	10 92 86 01 	sts	0x0186, r1	; 0x800186 <__data_end>
    1528:	29 81       	ldd	r18, Y+1	; 0x01
    152a:	3a 81       	ldd	r19, Y+2	; 0x02
    152c:	8b 81       	ldd	r24, Y+3	; 0x03
    152e:	9c 81       	ldd	r25, Y+4	; 0x04
    1530:	28 17       	cp	r18, r24
    1532:	39 07       	cpc	r19, r25
    1534:	6c f3       	brlt	.-38     	; 0x1510 <waitTime+0x16>
    1536:	00 00       	nop
    1538:	0f 90       	pop	r0
    153a:	0f 90       	pop	r0
    153c:	0f 90       	pop	r0
    153e:	0f 90       	pop	r0
    1540:	df 91       	pop	r29
    1542:	cf 91       	pop	r28
    1544:	08 95       	ret

00001546 <trans>:
    1546:	af 92       	push	r10
    1548:	bf 92       	push	r11
    154a:	cf 92       	push	r12
    154c:	df 92       	push	r13
    154e:	ef 92       	push	r14
    1550:	ff 92       	push	r15
    1552:	0f 93       	push	r16
    1554:	1f 93       	push	r17
    1556:	cf 93       	push	r28
    1558:	df 93       	push	r29
    155a:	1f 92       	push	r1
    155c:	cd b7       	in	r28, 0x3d	; 61
    155e:	de b7       	in	r29, 0x3e	; 62
    1560:	89 83       	std	Y+1, r24	; 0x01
    1562:	89 81       	ldd	r24, Y+1	; 0x01
    1564:	88 2f       	mov	r24, r24
    1566:	90 e0       	ldi	r25, 0x00	; 0
    1568:	09 2e       	mov	r0, r25
    156a:	00 0c       	add	r0, r0
    156c:	aa 0b       	sbc	r26, r26
    156e:	bb 0b       	sbc	r27, r27
    1570:	40 e3       	ldi	r20, 0x30	; 48
    1572:	50 e0       	ldi	r21, 0x00	; 0
    1574:	21 e3       	ldi	r18, 0x31	; 49
    1576:	30 e0       	ldi	r19, 0x00	; 0
    1578:	84 1b       	sub	r24, r20
    157a:	95 0b       	sbc	r25, r21
    157c:	28 17       	cp	r18, r24
    157e:	39 07       	cpc	r19, r25
    1580:	08 f4       	brcc	.+2      	; 0x1584 <trans+0x3e>
    1582:	68 c0       	rjmp	.+208    	; 0x1654 <trans+0x10e>
    1584:	80 5b       	subi	r24, 0xB0	; 176
    1586:	9f 4f       	sbci	r25, 0xFF	; 255
    1588:	fc 01       	movw	r30, r24
    158a:	0c 94 ba 14 	jmp	0x2974	; 0x2974 <__tablejump2__>
    158e:	20 e0       	ldi	r18, 0x00	; 0
    1590:	38 e1       	ldi	r19, 0x18	; 24
    1592:	48 e2       	ldi	r20, 0x28	; 40
    1594:	58 e0       	ldi	r21, 0x08	; 8
    1596:	68 e0       	ldi	r22, 0x08	; 8
    1598:	7c e0       	ldi	r23, 0x0C	; 12
    159a:	8e e0       	ldi	r24, 0x0E	; 14
    159c:	96 e0       	ldi	r25, 0x06	; 6
    159e:	62 c0       	rjmp	.+196    	; 0x1664 <trans+0x11e>
    15a0:	20 e0       	ldi	r18, 0x00	; 0
    15a2:	38 e1       	ldi	r19, 0x18	; 24
    15a4:	48 e1       	ldi	r20, 0x18	; 24
    15a6:	5c e1       	ldi	r21, 0x1C	; 28
    15a8:	68 e1       	ldi	r22, 0x18	; 24
    15aa:	78 e1       	ldi	r23, 0x18	; 24
    15ac:	88 e1       	ldi	r24, 0x18	; 24
    15ae:	9e e7       	ldi	r25, 0x7E	; 126
    15b0:	59 c0       	rjmp	.+178    	; 0x1664 <trans+0x11e>
    15b2:	20 e0       	ldi	r18, 0x00	; 0
    15b4:	3c e3       	ldi	r19, 0x3C	; 60
    15b6:	46 e6       	ldi	r20, 0x66	; 102
    15b8:	50 e6       	ldi	r21, 0x60	; 96
    15ba:	60 e3       	ldi	r22, 0x30	; 48
    15bc:	7c e0       	ldi	r23, 0x0C	; 12
    15be:	86 e0       	ldi	r24, 0x06	; 6
    15c0:	9e e7       	ldi	r25, 0x7E	; 126
    15c2:	50 c0       	rjmp	.+160    	; 0x1664 <trans+0x11e>
    15c4:	20 e0       	ldi	r18, 0x00	; 0
    15c6:	3c e3       	ldi	r19, 0x3C	; 60
    15c8:	46 e6       	ldi	r20, 0x66	; 102
    15ca:	50 e6       	ldi	r21, 0x60	; 96
    15cc:	68 e3       	ldi	r22, 0x38	; 56
    15ce:	70 e6       	ldi	r23, 0x60	; 96
    15d0:	86 e6       	ldi	r24, 0x66	; 102
    15d2:	9c e3       	ldi	r25, 0x3C	; 60
    15d4:	47 c0       	rjmp	.+142    	; 0x1664 <trans+0x11e>
    15d6:	20 e0       	ldi	r18, 0x00	; 0
    15d8:	30 e3       	ldi	r19, 0x30	; 48
    15da:	48 e3       	ldi	r20, 0x38	; 56
    15dc:	54 e3       	ldi	r21, 0x34	; 52
    15de:	62 e3       	ldi	r22, 0x32	; 50
    15e0:	7e e7       	ldi	r23, 0x7E	; 126
    15e2:	80 e3       	ldi	r24, 0x30	; 48
    15e4:	90 e3       	ldi	r25, 0x30	; 48
    15e6:	3e c0       	rjmp	.+124    	; 0x1664 <trans+0x11e>
    15e8:	20 e0       	ldi	r18, 0x00	; 0
    15ea:	3e e7       	ldi	r19, 0x7E	; 126
    15ec:	46 e0       	ldi	r20, 0x06	; 6
    15ee:	5e e3       	ldi	r21, 0x3E	; 62
    15f0:	60 e6       	ldi	r22, 0x60	; 96
    15f2:	70 e6       	ldi	r23, 0x60	; 96
    15f4:	86 e6       	ldi	r24, 0x66	; 102
    15f6:	9c e3       	ldi	r25, 0x3C	; 60
    15f8:	35 c0       	rjmp	.+106    	; 0x1664 <trans+0x11e>
    15fa:	20 e0       	ldi	r18, 0x00	; 0
    15fc:	3c e3       	ldi	r19, 0x3C	; 60
    15fe:	46 e6       	ldi	r20, 0x66	; 102
    1600:	56 e0       	ldi	r21, 0x06	; 6
    1602:	6e e3       	ldi	r22, 0x3E	; 62
    1604:	76 e6       	ldi	r23, 0x66	; 102
    1606:	86 e6       	ldi	r24, 0x66	; 102
    1608:	9c e3       	ldi	r25, 0x3C	; 60
    160a:	2c c0       	rjmp	.+88     	; 0x1664 <trans+0x11e>
    160c:	20 e0       	ldi	r18, 0x00	; 0
    160e:	3e e7       	ldi	r19, 0x7E	; 126
    1610:	46 e6       	ldi	r20, 0x66	; 102
    1612:	50 e3       	ldi	r21, 0x30	; 48
    1614:	60 e3       	ldi	r22, 0x30	; 48
    1616:	78 e1       	ldi	r23, 0x18	; 24
    1618:	88 e1       	ldi	r24, 0x18	; 24
    161a:	98 e1       	ldi	r25, 0x18	; 24
    161c:	23 c0       	rjmp	.+70     	; 0x1664 <trans+0x11e>
    161e:	20 e0       	ldi	r18, 0x00	; 0
    1620:	3c e3       	ldi	r19, 0x3C	; 60
    1622:	46 e6       	ldi	r20, 0x66	; 102
    1624:	56 e6       	ldi	r21, 0x66	; 102
    1626:	6c e3       	ldi	r22, 0x3C	; 60
    1628:	76 e6       	ldi	r23, 0x66	; 102
    162a:	86 e6       	ldi	r24, 0x66	; 102
    162c:	9c e3       	ldi	r25, 0x3C	; 60
    162e:	1a c0       	rjmp	.+52     	; 0x1664 <trans+0x11e>
    1630:	20 e0       	ldi	r18, 0x00	; 0
    1632:	3c e3       	ldi	r19, 0x3C	; 60
    1634:	46 e6       	ldi	r20, 0x66	; 102
    1636:	56 e6       	ldi	r21, 0x66	; 102
    1638:	6c e7       	ldi	r22, 0x7C	; 124
    163a:	70 e6       	ldi	r23, 0x60	; 96
    163c:	86 e6       	ldi	r24, 0x66	; 102
    163e:	9c e3       	ldi	r25, 0x3C	; 60
    1640:	11 c0       	rjmp	.+34     	; 0x1664 <trans+0x11e>
    1642:	20 e0       	ldi	r18, 0x00	; 0
    1644:	3c e3       	ldi	r19, 0x3C	; 60
    1646:	46 e6       	ldi	r20, 0x66	; 102
    1648:	56 e7       	ldi	r21, 0x76	; 118
    164a:	6e e6       	ldi	r22, 0x6E	; 110
    164c:	76 e6       	ldi	r23, 0x66	; 102
    164e:	86 e6       	ldi	r24, 0x66	; 102
    1650:	9c e3       	ldi	r25, 0x3C	; 60
    1652:	08 c0       	rjmp	.+16     	; 0x1664 <trans+0x11e>
    1654:	20 e0       	ldi	r18, 0x00	; 0
    1656:	38 e1       	ldi	r19, 0x18	; 24
    1658:	48 e2       	ldi	r20, 0x28	; 40
    165a:	58 e0       	ldi	r21, 0x08	; 8
    165c:	68 e0       	ldi	r22, 0x08	; 8
    165e:	7c e0       	ldi	r23, 0x0C	; 12
    1660:	8e e0       	ldi	r24, 0x0E	; 14
    1662:	96 e0       	ldi	r25, 0x06	; 6
    1664:	a2 2e       	mov	r10, r18
    1666:	b3 2e       	mov	r11, r19
    1668:	c4 2e       	mov	r12, r20
    166a:	d5 2e       	mov	r13, r21
    166c:	e6 2e       	mov	r14, r22
    166e:	f7 2e       	mov	r15, r23
    1670:	08 2f       	mov	r16, r24
    1672:	19 2f       	mov	r17, r25
    1674:	2a 2d       	mov	r18, r10
    1676:	3b 2d       	mov	r19, r11
    1678:	4c 2d       	mov	r20, r12
    167a:	5d 2d       	mov	r21, r13
    167c:	6e 2d       	mov	r22, r14
    167e:	7f 2d       	mov	r23, r15
    1680:	80 2f       	mov	r24, r16
    1682:	91 2f       	mov	r25, r17
    1684:	0f 90       	pop	r0
    1686:	df 91       	pop	r29
    1688:	cf 91       	pop	r28
    168a:	1f 91       	pop	r17
    168c:	0f 91       	pop	r16
    168e:	ff 90       	pop	r15
    1690:	ef 90       	pop	r14
    1692:	df 90       	pop	r13
    1694:	cf 90       	pop	r12
    1696:	bf 90       	pop	r11
    1698:	af 90       	pop	r10
    169a:	08 95       	ret

0000169c <rank_analyse>:
    169c:	af 92       	push	r10
    169e:	bf 92       	push	r11
    16a0:	cf 92       	push	r12
    16a2:	df 92       	push	r13
    16a4:	ef 92       	push	r14
    16a6:	ff 92       	push	r15
    16a8:	0f 93       	push	r16
    16aa:	1f 93       	push	r17
    16ac:	cf 93       	push	r28
    16ae:	df 93       	push	r29
    16b0:	00 d0       	rcall	.+0      	; 0x16b2 <rank_analyse+0x16>
    16b2:	cd b7       	in	r28, 0x3d	; 61
    16b4:	de b7       	in	r29, 0x3e	; 62
    16b6:	9a 83       	std	Y+2, r25	; 0x02
    16b8:	89 83       	std	Y+1, r24	; 0x01
    16ba:	89 81       	ldd	r24, Y+1	; 0x01
    16bc:	9a 81       	ldd	r25, Y+2	; 0x02
    16be:	8f 30       	cpi	r24, 0x0F	; 15
    16c0:	96 40       	sbci	r25, 0x06	; 6
    16c2:	4c f0       	brlt	.+18     	; 0x16d6 <rank_analyse+0x3a>
    16c4:	20 e0       	ldi	r18, 0x00	; 0
    16c6:	3c e3       	ldi	r19, 0x3C	; 60
    16c8:	46 e6       	ldi	r20, 0x66	; 102
    16ca:	56 e0       	ldi	r21, 0x06	; 6
    16cc:	6c e3       	ldi	r22, 0x3C	; 60
    16ce:	70 e6       	ldi	r23, 0x60	; 96
    16d0:	86 e6       	ldi	r24, 0x66	; 102
    16d2:	9c e3       	ldi	r25, 0x3C	; 60
    16d4:	40 c0       	rjmp	.+128    	; 0x1756 <rank_analyse+0xba>
    16d6:	89 81       	ldd	r24, Y+1	; 0x01
    16d8:	9a 81       	ldd	r25, Y+2	; 0x02
    16da:	89 37       	cpi	r24, 0x79	; 121
    16dc:	95 40       	sbci	r25, 0x05	; 5
    16de:	4c f0       	brlt	.+18     	; 0x16f2 <rank_analyse+0x56>
    16e0:	20 e0       	ldi	r18, 0x00	; 0
    16e2:	3c e3       	ldi	r19, 0x3C	; 60
    16e4:	46 e6       	ldi	r20, 0x66	; 102
    16e6:	56 e6       	ldi	r21, 0x66	; 102
    16e8:	6e e7       	ldi	r22, 0x7E	; 126
    16ea:	76 e6       	ldi	r23, 0x66	; 102
    16ec:	86 e6       	ldi	r24, 0x66	; 102
    16ee:	96 e6       	ldi	r25, 0x66	; 102
    16f0:	32 c0       	rjmp	.+100    	; 0x1756 <rank_analyse+0xba>
    16f2:	89 81       	ldd	r24, Y+1	; 0x01
    16f4:	9a 81       	ldd	r25, Y+2	; 0x02
    16f6:	83 3e       	cpi	r24, 0xE3	; 227
    16f8:	94 40       	sbci	r25, 0x04	; 4
    16fa:	4c f0       	brlt	.+18     	; 0x170e <rank_analyse+0x72>
    16fc:	20 e0       	ldi	r18, 0x00	; 0
    16fe:	3e e3       	ldi	r19, 0x3E	; 62
    1700:	46 e6       	ldi	r20, 0x66	; 102
    1702:	56 e6       	ldi	r21, 0x66	; 102
    1704:	6e e3       	ldi	r22, 0x3E	; 62
    1706:	76 e6       	ldi	r23, 0x66	; 102
    1708:	86 e6       	ldi	r24, 0x66	; 102
    170a:	9e e3       	ldi	r25, 0x3E	; 62
    170c:	24 c0       	rjmp	.+72     	; 0x1756 <rank_analyse+0xba>
    170e:	89 81       	ldd	r24, Y+1	; 0x01
    1710:	9a 81       	ldd	r25, Y+2	; 0x02
    1712:	89 3e       	cpi	r24, 0xE9	; 233
    1714:	93 40       	sbci	r25, 0x03	; 3
    1716:	4c f0       	brlt	.+18     	; 0x172a <rank_analyse+0x8e>
    1718:	20 e0       	ldi	r18, 0x00	; 0
    171a:	3c e3       	ldi	r19, 0x3C	; 60
    171c:	46 e6       	ldi	r20, 0x66	; 102
    171e:	56 e0       	ldi	r21, 0x06	; 6
    1720:	66 e0       	ldi	r22, 0x06	; 6
    1722:	76 e0       	ldi	r23, 0x06	; 6
    1724:	86 e6       	ldi	r24, 0x66	; 102
    1726:	9c e3       	ldi	r25, 0x3C	; 60
    1728:	16 c0       	rjmp	.+44     	; 0x1756 <rank_analyse+0xba>
    172a:	89 81       	ldd	r24, Y+1	; 0x01
    172c:	9a 81       	ldd	r25, Y+2	; 0x02
    172e:	8f 3e       	cpi	r24, 0xEF	; 239
    1730:	92 40       	sbci	r25, 0x02	; 2
    1732:	4c f0       	brlt	.+18     	; 0x1746 <rank_analyse+0xaa>
    1734:	20 e0       	ldi	r18, 0x00	; 0
    1736:	3e e3       	ldi	r19, 0x3E	; 62
    1738:	46 e6       	ldi	r20, 0x66	; 102
    173a:	56 e6       	ldi	r21, 0x66	; 102
    173c:	66 e6       	ldi	r22, 0x66	; 102
    173e:	76 e6       	ldi	r23, 0x66	; 102
    1740:	86 e6       	ldi	r24, 0x66	; 102
    1742:	9e e3       	ldi	r25, 0x3E	; 62
    1744:	08 c0       	rjmp	.+16     	; 0x1756 <rank_analyse+0xba>
    1746:	20 e0       	ldi	r18, 0x00	; 0
    1748:	3e e7       	ldi	r19, 0x7E	; 126
    174a:	46 e0       	ldi	r20, 0x06	; 6
    174c:	56 e0       	ldi	r21, 0x06	; 6
    174e:	6e e3       	ldi	r22, 0x3E	; 62
    1750:	76 e0       	ldi	r23, 0x06	; 6
    1752:	86 e0       	ldi	r24, 0x06	; 6
    1754:	9e e7       	ldi	r25, 0x7E	; 126
    1756:	a2 2e       	mov	r10, r18
    1758:	b3 2e       	mov	r11, r19
    175a:	c4 2e       	mov	r12, r20
    175c:	d5 2e       	mov	r13, r21
    175e:	e6 2e       	mov	r14, r22
    1760:	f7 2e       	mov	r15, r23
    1762:	08 2f       	mov	r16, r24
    1764:	19 2f       	mov	r17, r25
    1766:	2a 2d       	mov	r18, r10
    1768:	3b 2d       	mov	r19, r11
    176a:	4c 2d       	mov	r20, r12
    176c:	5d 2d       	mov	r21, r13
    176e:	6e 2d       	mov	r22, r14
    1770:	7f 2d       	mov	r23, r15
    1772:	80 2f       	mov	r24, r16
    1774:	91 2f       	mov	r25, r17
    1776:	0f 90       	pop	r0
    1778:	0f 90       	pop	r0
    177a:	df 91       	pop	r29
    177c:	cf 91       	pop	r28
    177e:	1f 91       	pop	r17
    1780:	0f 91       	pop	r16
    1782:	ff 90       	pop	r15
    1784:	ef 90       	pop	r14
    1786:	df 90       	pop	r13
    1788:	cf 90       	pop	r12
    178a:	bf 90       	pop	r11
    178c:	af 90       	pop	r10
    178e:	08 95       	ret

00001790 <set_bar_pos>:
    1790:	8f 92       	push	r8
    1792:	9f 92       	push	r9
    1794:	af 92       	push	r10
    1796:	bf 92       	push	r11
    1798:	cf 92       	push	r12
    179a:	df 92       	push	r13
    179c:	ef 92       	push	r14
    179e:	ff 92       	push	r15
    17a0:	0f 93       	push	r16
    17a2:	1f 93       	push	r17
    17a4:	cf 93       	push	r28
    17a6:	df 93       	push	r29
    17a8:	00 d0       	rcall	.+0      	; 0x17aa <set_bar_pos+0x1a>
    17aa:	cd b7       	in	r28, 0x3d	; 61
    17ac:	de b7       	in	r29, 0x3e	; 62
    17ae:	9a 83       	std	Y+2, r25	; 0x02
    17b0:	89 83       	std	Y+1, r24	; 0x01
    17b2:	89 81       	ldd	r24, Y+1	; 0x01
    17b4:	9a 81       	ldd	r25, Y+2	; 0x02
    17b6:	09 2e       	mov	r0, r25
    17b8:	00 0c       	add	r0, r0
    17ba:	aa 0b       	sbc	r26, r26
    17bc:	bb 0b       	sbc	r27, r27
    17be:	41 e0       	ldi	r20, 0x01	; 1
    17c0:	50 e0       	ldi	r21, 0x00	; 0
    17c2:	20 e1       	ldi	r18, 0x10	; 16
    17c4:	30 e0       	ldi	r19, 0x00	; 0
    17c6:	84 1b       	sub	r24, r20
    17c8:	95 0b       	sbc	r25, r21
    17ca:	28 17       	cp	r18, r24
    17cc:	39 07       	cpc	r19, r25
    17ce:	08 f4       	brcc	.+2      	; 0x17d2 <set_bar_pos+0x42>
    17d0:	1c c4       	rjmp	.+2104   	; 0x200a <set_bar_pos+0x87a>
    17d2:	8e 57       	subi	r24, 0x7E	; 126
    17d4:	9f 4f       	sbci	r25, 0xFF	; 255
    17d6:	fc 01       	movw	r30, r24
    17d8:	0c 94 ba 14 	jmp	0x2974	; 0x2974 <__tablejump2__>
    17dc:	88 24       	eor	r8, r8
    17de:	83 94       	inc	r8
    17e0:	99 24       	eor	r9, r9
    17e2:	93 94       	inc	r9
    17e4:	aa 24       	eor	r10, r10
    17e6:	a3 94       	inc	r10
    17e8:	bb 24       	eor	r11, r11
    17ea:	b3 94       	inc	r11
    17ec:	cc 24       	eor	r12, r12
    17ee:	c3 94       	inc	r12
    17f0:	dd 24       	eor	r13, r13
    17f2:	d3 94       	inc	r13
    17f4:	ee 24       	eor	r14, r14
    17f6:	e3 94       	inc	r14
    17f8:	ff 24       	eor	r15, r15
    17fa:	f3 94       	inc	r15
    17fc:	08 2d       	mov	r16, r8
    17fe:	19 2d       	mov	r17, r9
    1800:	2a 2d       	mov	r18, r10
    1802:	3b 2d       	mov	r19, r11
    1804:	4c 2d       	mov	r20, r12
    1806:	5d 2d       	mov	r21, r13
    1808:	6e 2d       	mov	r22, r14
    180a:	7f 2d       	mov	r23, r15
    180c:	82 e0       	ldi	r24, 0x02	; 2
    180e:	0e 94 f0 03 	call	0x7e0	; 0x7e0 <MAX7219_MatrixSetRow64>
    1812:	81 2c       	mov	r8, r1
    1814:	91 2c       	mov	r9, r1
    1816:	a1 2c       	mov	r10, r1
    1818:	b1 2c       	mov	r11, r1
    181a:	c1 2c       	mov	r12, r1
    181c:	d1 2c       	mov	r13, r1
    181e:	e1 2c       	mov	r14, r1
    1820:	f1 2c       	mov	r15, r1
    1822:	08 2d       	mov	r16, r8
    1824:	19 2d       	mov	r17, r9
    1826:	2a 2d       	mov	r18, r10
    1828:	3b 2d       	mov	r19, r11
    182a:	4c 2d       	mov	r20, r12
    182c:	5d 2d       	mov	r21, r13
    182e:	6e 2d       	mov	r22, r14
    1830:	7f 2d       	mov	r23, r15
    1832:	81 e0       	ldi	r24, 0x01	; 1
    1834:	0e 94 f0 03 	call	0x7e0	; 0x7e0 <MAX7219_MatrixSetRow64>
    1838:	35 c4       	rjmp	.+2154   	; 0x20a4 <set_bar_pos+0x914>
    183a:	0f 2e       	mov	r0, r31
    183c:	f3 e0       	ldi	r31, 0x03	; 3
    183e:	8f 2e       	mov	r8, r31
    1840:	f0 2d       	mov	r31, r0
    1842:	0f 2e       	mov	r0, r31
    1844:	f3 e0       	ldi	r31, 0x03	; 3
    1846:	9f 2e       	mov	r9, r31
    1848:	f0 2d       	mov	r31, r0
    184a:	0f 2e       	mov	r0, r31
    184c:	f3 e0       	ldi	r31, 0x03	; 3
    184e:	af 2e       	mov	r10, r31
    1850:	f0 2d       	mov	r31, r0
    1852:	0f 2e       	mov	r0, r31
    1854:	f3 e0       	ldi	r31, 0x03	; 3
    1856:	bf 2e       	mov	r11, r31
    1858:	f0 2d       	mov	r31, r0
    185a:	0f 2e       	mov	r0, r31
    185c:	f3 e0       	ldi	r31, 0x03	; 3
    185e:	cf 2e       	mov	r12, r31
    1860:	f0 2d       	mov	r31, r0
    1862:	0f 2e       	mov	r0, r31
    1864:	f3 e0       	ldi	r31, 0x03	; 3
    1866:	df 2e       	mov	r13, r31
    1868:	f0 2d       	mov	r31, r0
    186a:	0f 2e       	mov	r0, r31
    186c:	f3 e0       	ldi	r31, 0x03	; 3
    186e:	ef 2e       	mov	r14, r31
    1870:	f0 2d       	mov	r31, r0
    1872:	0f 2e       	mov	r0, r31
    1874:	f3 e0       	ldi	r31, 0x03	; 3
    1876:	ff 2e       	mov	r15, r31
    1878:	f0 2d       	mov	r31, r0
    187a:	08 2d       	mov	r16, r8
    187c:	19 2d       	mov	r17, r9
    187e:	2a 2d       	mov	r18, r10
    1880:	3b 2d       	mov	r19, r11
    1882:	4c 2d       	mov	r20, r12
    1884:	5d 2d       	mov	r21, r13
    1886:	6e 2d       	mov	r22, r14
    1888:	7f 2d       	mov	r23, r15
    188a:	82 e0       	ldi	r24, 0x02	; 2
    188c:	0e 94 f0 03 	call	0x7e0	; 0x7e0 <MAX7219_MatrixSetRow64>
    1890:	81 2c       	mov	r8, r1
    1892:	91 2c       	mov	r9, r1
    1894:	a1 2c       	mov	r10, r1
    1896:	b1 2c       	mov	r11, r1
    1898:	c1 2c       	mov	r12, r1
    189a:	d1 2c       	mov	r13, r1
    189c:	e1 2c       	mov	r14, r1
    189e:	f1 2c       	mov	r15, r1
    18a0:	08 2d       	mov	r16, r8
    18a2:	19 2d       	mov	r17, r9
    18a4:	2a 2d       	mov	r18, r10
    18a6:	3b 2d       	mov	r19, r11
    18a8:	4c 2d       	mov	r20, r12
    18aa:	5d 2d       	mov	r21, r13
    18ac:	6e 2d       	mov	r22, r14
    18ae:	7f 2d       	mov	r23, r15
    18b0:	81 e0       	ldi	r24, 0x01	; 1
    18b2:	0e 94 f0 03 	call	0x7e0	; 0x7e0 <MAX7219_MatrixSetRow64>
    18b6:	f6 c3       	rjmp	.+2028   	; 0x20a4 <set_bar_pos+0x914>
    18b8:	0f 2e       	mov	r0, r31
    18ba:	f6 e0       	ldi	r31, 0x06	; 6
    18bc:	8f 2e       	mov	r8, r31
    18be:	f0 2d       	mov	r31, r0
    18c0:	0f 2e       	mov	r0, r31
    18c2:	f6 e0       	ldi	r31, 0x06	; 6
    18c4:	9f 2e       	mov	r9, r31
    18c6:	f0 2d       	mov	r31, r0
    18c8:	0f 2e       	mov	r0, r31
    18ca:	f6 e0       	ldi	r31, 0x06	; 6
    18cc:	af 2e       	mov	r10, r31
    18ce:	f0 2d       	mov	r31, r0
    18d0:	0f 2e       	mov	r0, r31
    18d2:	f6 e0       	ldi	r31, 0x06	; 6
    18d4:	bf 2e       	mov	r11, r31
    18d6:	f0 2d       	mov	r31, r0
    18d8:	0f 2e       	mov	r0, r31
    18da:	f6 e0       	ldi	r31, 0x06	; 6
    18dc:	cf 2e       	mov	r12, r31
    18de:	f0 2d       	mov	r31, r0
    18e0:	0f 2e       	mov	r0, r31
    18e2:	f6 e0       	ldi	r31, 0x06	; 6
    18e4:	df 2e       	mov	r13, r31
    18e6:	f0 2d       	mov	r31, r0
    18e8:	0f 2e       	mov	r0, r31
    18ea:	f6 e0       	ldi	r31, 0x06	; 6
    18ec:	ef 2e       	mov	r14, r31
    18ee:	f0 2d       	mov	r31, r0
    18f0:	0f 2e       	mov	r0, r31
    18f2:	f6 e0       	ldi	r31, 0x06	; 6
    18f4:	ff 2e       	mov	r15, r31
    18f6:	f0 2d       	mov	r31, r0
    18f8:	08 2d       	mov	r16, r8
    18fa:	19 2d       	mov	r17, r9
    18fc:	2a 2d       	mov	r18, r10
    18fe:	3b 2d       	mov	r19, r11
    1900:	4c 2d       	mov	r20, r12
    1902:	5d 2d       	mov	r21, r13
    1904:	6e 2d       	mov	r22, r14
    1906:	7f 2d       	mov	r23, r15
    1908:	82 e0       	ldi	r24, 0x02	; 2
    190a:	0e 94 f0 03 	call	0x7e0	; 0x7e0 <MAX7219_MatrixSetRow64>
    190e:	81 2c       	mov	r8, r1
    1910:	91 2c       	mov	r9, r1
    1912:	a1 2c       	mov	r10, r1
    1914:	b1 2c       	mov	r11, r1
    1916:	c1 2c       	mov	r12, r1
    1918:	d1 2c       	mov	r13, r1
    191a:	e1 2c       	mov	r14, r1
    191c:	f1 2c       	mov	r15, r1
    191e:	08 2d       	mov	r16, r8
    1920:	19 2d       	mov	r17, r9
    1922:	2a 2d       	mov	r18, r10
    1924:	3b 2d       	mov	r19, r11
    1926:	4c 2d       	mov	r20, r12
    1928:	5d 2d       	mov	r21, r13
    192a:	6e 2d       	mov	r22, r14
    192c:	7f 2d       	mov	r23, r15
    192e:	81 e0       	ldi	r24, 0x01	; 1
    1930:	0e 94 f0 03 	call	0x7e0	; 0x7e0 <MAX7219_MatrixSetRow64>
    1934:	b7 c3       	rjmp	.+1902   	; 0x20a4 <set_bar_pos+0x914>
    1936:	0f 2e       	mov	r0, r31
    1938:	fc e0       	ldi	r31, 0x0C	; 12
    193a:	8f 2e       	mov	r8, r31
    193c:	f0 2d       	mov	r31, r0
    193e:	0f 2e       	mov	r0, r31
    1940:	fc e0       	ldi	r31, 0x0C	; 12
    1942:	9f 2e       	mov	r9, r31
    1944:	f0 2d       	mov	r31, r0
    1946:	0f 2e       	mov	r0, r31
    1948:	fc e0       	ldi	r31, 0x0C	; 12
    194a:	af 2e       	mov	r10, r31
    194c:	f0 2d       	mov	r31, r0
    194e:	0f 2e       	mov	r0, r31
    1950:	fc e0       	ldi	r31, 0x0C	; 12
    1952:	bf 2e       	mov	r11, r31
    1954:	f0 2d       	mov	r31, r0
    1956:	0f 2e       	mov	r0, r31
    1958:	fc e0       	ldi	r31, 0x0C	; 12
    195a:	cf 2e       	mov	r12, r31
    195c:	f0 2d       	mov	r31, r0
    195e:	0f 2e       	mov	r0, r31
    1960:	fc e0       	ldi	r31, 0x0C	; 12
    1962:	df 2e       	mov	r13, r31
    1964:	f0 2d       	mov	r31, r0
    1966:	0f 2e       	mov	r0, r31
    1968:	fc e0       	ldi	r31, 0x0C	; 12
    196a:	ef 2e       	mov	r14, r31
    196c:	f0 2d       	mov	r31, r0
    196e:	0f 2e       	mov	r0, r31
    1970:	fc e0       	ldi	r31, 0x0C	; 12
    1972:	ff 2e       	mov	r15, r31
    1974:	f0 2d       	mov	r31, r0
    1976:	08 2d       	mov	r16, r8
    1978:	19 2d       	mov	r17, r9
    197a:	2a 2d       	mov	r18, r10
    197c:	3b 2d       	mov	r19, r11
    197e:	4c 2d       	mov	r20, r12
    1980:	5d 2d       	mov	r21, r13
    1982:	6e 2d       	mov	r22, r14
    1984:	7f 2d       	mov	r23, r15
    1986:	82 e0       	ldi	r24, 0x02	; 2
    1988:	0e 94 f0 03 	call	0x7e0	; 0x7e0 <MAX7219_MatrixSetRow64>
    198c:	81 2c       	mov	r8, r1
    198e:	91 2c       	mov	r9, r1
    1990:	a1 2c       	mov	r10, r1
    1992:	b1 2c       	mov	r11, r1
    1994:	c1 2c       	mov	r12, r1
    1996:	d1 2c       	mov	r13, r1
    1998:	e1 2c       	mov	r14, r1
    199a:	f1 2c       	mov	r15, r1
    199c:	08 2d       	mov	r16, r8
    199e:	19 2d       	mov	r17, r9
    19a0:	2a 2d       	mov	r18, r10
    19a2:	3b 2d       	mov	r19, r11
    19a4:	4c 2d       	mov	r20, r12
    19a6:	5d 2d       	mov	r21, r13
    19a8:	6e 2d       	mov	r22, r14
    19aa:	7f 2d       	mov	r23, r15
    19ac:	81 e0       	ldi	r24, 0x01	; 1
    19ae:	0e 94 f0 03 	call	0x7e0	; 0x7e0 <MAX7219_MatrixSetRow64>
    19b2:	78 c3       	rjmp	.+1776   	; 0x20a4 <set_bar_pos+0x914>
    19b4:	0f 2e       	mov	r0, r31
    19b6:	f8 e1       	ldi	r31, 0x18	; 24
    19b8:	8f 2e       	mov	r8, r31
    19ba:	f0 2d       	mov	r31, r0
    19bc:	0f 2e       	mov	r0, r31
    19be:	f8 e1       	ldi	r31, 0x18	; 24
    19c0:	9f 2e       	mov	r9, r31
    19c2:	f0 2d       	mov	r31, r0
    19c4:	0f 2e       	mov	r0, r31
    19c6:	f8 e1       	ldi	r31, 0x18	; 24
    19c8:	af 2e       	mov	r10, r31
    19ca:	f0 2d       	mov	r31, r0
    19cc:	0f 2e       	mov	r0, r31
    19ce:	f8 e1       	ldi	r31, 0x18	; 24
    19d0:	bf 2e       	mov	r11, r31
    19d2:	f0 2d       	mov	r31, r0
    19d4:	0f 2e       	mov	r0, r31
    19d6:	f8 e1       	ldi	r31, 0x18	; 24
    19d8:	cf 2e       	mov	r12, r31
    19da:	f0 2d       	mov	r31, r0
    19dc:	0f 2e       	mov	r0, r31
    19de:	f8 e1       	ldi	r31, 0x18	; 24
    19e0:	df 2e       	mov	r13, r31
    19e2:	f0 2d       	mov	r31, r0
    19e4:	0f 2e       	mov	r0, r31
    19e6:	f8 e1       	ldi	r31, 0x18	; 24
    19e8:	ef 2e       	mov	r14, r31
    19ea:	f0 2d       	mov	r31, r0
    19ec:	0f 2e       	mov	r0, r31
    19ee:	f8 e1       	ldi	r31, 0x18	; 24
    19f0:	ff 2e       	mov	r15, r31
    19f2:	f0 2d       	mov	r31, r0
    19f4:	08 2d       	mov	r16, r8
    19f6:	19 2d       	mov	r17, r9
    19f8:	2a 2d       	mov	r18, r10
    19fa:	3b 2d       	mov	r19, r11
    19fc:	4c 2d       	mov	r20, r12
    19fe:	5d 2d       	mov	r21, r13
    1a00:	6e 2d       	mov	r22, r14
    1a02:	7f 2d       	mov	r23, r15
    1a04:	82 e0       	ldi	r24, 0x02	; 2
    1a06:	0e 94 f0 03 	call	0x7e0	; 0x7e0 <MAX7219_MatrixSetRow64>
    1a0a:	81 2c       	mov	r8, r1
    1a0c:	91 2c       	mov	r9, r1
    1a0e:	a1 2c       	mov	r10, r1
    1a10:	b1 2c       	mov	r11, r1
    1a12:	c1 2c       	mov	r12, r1
    1a14:	d1 2c       	mov	r13, r1
    1a16:	e1 2c       	mov	r14, r1
    1a18:	f1 2c       	mov	r15, r1
    1a1a:	08 2d       	mov	r16, r8
    1a1c:	19 2d       	mov	r17, r9
    1a1e:	2a 2d       	mov	r18, r10
    1a20:	3b 2d       	mov	r19, r11
    1a22:	4c 2d       	mov	r20, r12
    1a24:	5d 2d       	mov	r21, r13
    1a26:	6e 2d       	mov	r22, r14
    1a28:	7f 2d       	mov	r23, r15
    1a2a:	81 e0       	ldi	r24, 0x01	; 1
    1a2c:	0e 94 f0 03 	call	0x7e0	; 0x7e0 <MAX7219_MatrixSetRow64>
    1a30:	39 c3       	rjmp	.+1650   	; 0x20a4 <set_bar_pos+0x914>
    1a32:	0f 2e       	mov	r0, r31
    1a34:	f0 e3       	ldi	r31, 0x30	; 48
    1a36:	8f 2e       	mov	r8, r31
    1a38:	f0 2d       	mov	r31, r0
    1a3a:	0f 2e       	mov	r0, r31
    1a3c:	f0 e3       	ldi	r31, 0x30	; 48
    1a3e:	9f 2e       	mov	r9, r31
    1a40:	f0 2d       	mov	r31, r0
    1a42:	0f 2e       	mov	r0, r31
    1a44:	f0 e3       	ldi	r31, 0x30	; 48
    1a46:	af 2e       	mov	r10, r31
    1a48:	f0 2d       	mov	r31, r0
    1a4a:	0f 2e       	mov	r0, r31
    1a4c:	f0 e3       	ldi	r31, 0x30	; 48
    1a4e:	bf 2e       	mov	r11, r31
    1a50:	f0 2d       	mov	r31, r0
    1a52:	0f 2e       	mov	r0, r31
    1a54:	f0 e3       	ldi	r31, 0x30	; 48
    1a56:	cf 2e       	mov	r12, r31
    1a58:	f0 2d       	mov	r31, r0
    1a5a:	0f 2e       	mov	r0, r31
    1a5c:	f0 e3       	ldi	r31, 0x30	; 48
    1a5e:	df 2e       	mov	r13, r31
    1a60:	f0 2d       	mov	r31, r0
    1a62:	0f 2e       	mov	r0, r31
    1a64:	f0 e3       	ldi	r31, 0x30	; 48
    1a66:	ef 2e       	mov	r14, r31
    1a68:	f0 2d       	mov	r31, r0
    1a6a:	0f 2e       	mov	r0, r31
    1a6c:	f0 e3       	ldi	r31, 0x30	; 48
    1a6e:	ff 2e       	mov	r15, r31
    1a70:	f0 2d       	mov	r31, r0
    1a72:	08 2d       	mov	r16, r8
    1a74:	19 2d       	mov	r17, r9
    1a76:	2a 2d       	mov	r18, r10
    1a78:	3b 2d       	mov	r19, r11
    1a7a:	4c 2d       	mov	r20, r12
    1a7c:	5d 2d       	mov	r21, r13
    1a7e:	6e 2d       	mov	r22, r14
    1a80:	7f 2d       	mov	r23, r15
    1a82:	82 e0       	ldi	r24, 0x02	; 2
    1a84:	0e 94 f0 03 	call	0x7e0	; 0x7e0 <MAX7219_MatrixSetRow64>
    1a88:	81 2c       	mov	r8, r1
    1a8a:	91 2c       	mov	r9, r1
    1a8c:	a1 2c       	mov	r10, r1
    1a8e:	b1 2c       	mov	r11, r1
    1a90:	c1 2c       	mov	r12, r1
    1a92:	d1 2c       	mov	r13, r1
    1a94:	e1 2c       	mov	r14, r1
    1a96:	f1 2c       	mov	r15, r1
    1a98:	08 2d       	mov	r16, r8
    1a9a:	19 2d       	mov	r17, r9
    1a9c:	2a 2d       	mov	r18, r10
    1a9e:	3b 2d       	mov	r19, r11
    1aa0:	4c 2d       	mov	r20, r12
    1aa2:	5d 2d       	mov	r21, r13
    1aa4:	6e 2d       	mov	r22, r14
    1aa6:	7f 2d       	mov	r23, r15
    1aa8:	81 e0       	ldi	r24, 0x01	; 1
    1aaa:	0e 94 f0 03 	call	0x7e0	; 0x7e0 <MAX7219_MatrixSetRow64>
    1aae:	fa c2       	rjmp	.+1524   	; 0x20a4 <set_bar_pos+0x914>
    1ab0:	0f 2e       	mov	r0, r31
    1ab2:	f0 e6       	ldi	r31, 0x60	; 96
    1ab4:	8f 2e       	mov	r8, r31
    1ab6:	f0 2d       	mov	r31, r0
    1ab8:	0f 2e       	mov	r0, r31
    1aba:	f0 e6       	ldi	r31, 0x60	; 96
    1abc:	9f 2e       	mov	r9, r31
    1abe:	f0 2d       	mov	r31, r0
    1ac0:	0f 2e       	mov	r0, r31
    1ac2:	f0 e6       	ldi	r31, 0x60	; 96
    1ac4:	af 2e       	mov	r10, r31
    1ac6:	f0 2d       	mov	r31, r0
    1ac8:	0f 2e       	mov	r0, r31
    1aca:	f0 e6       	ldi	r31, 0x60	; 96
    1acc:	bf 2e       	mov	r11, r31
    1ace:	f0 2d       	mov	r31, r0
    1ad0:	0f 2e       	mov	r0, r31
    1ad2:	f0 e6       	ldi	r31, 0x60	; 96
    1ad4:	cf 2e       	mov	r12, r31
    1ad6:	f0 2d       	mov	r31, r0
    1ad8:	0f 2e       	mov	r0, r31
    1ada:	f0 e6       	ldi	r31, 0x60	; 96
    1adc:	df 2e       	mov	r13, r31
    1ade:	f0 2d       	mov	r31, r0
    1ae0:	0f 2e       	mov	r0, r31
    1ae2:	f0 e6       	ldi	r31, 0x60	; 96
    1ae4:	ef 2e       	mov	r14, r31
    1ae6:	f0 2d       	mov	r31, r0
    1ae8:	0f 2e       	mov	r0, r31
    1aea:	f0 e6       	ldi	r31, 0x60	; 96
    1aec:	ff 2e       	mov	r15, r31
    1aee:	f0 2d       	mov	r31, r0
    1af0:	08 2d       	mov	r16, r8
    1af2:	19 2d       	mov	r17, r9
    1af4:	2a 2d       	mov	r18, r10
    1af6:	3b 2d       	mov	r19, r11
    1af8:	4c 2d       	mov	r20, r12
    1afa:	5d 2d       	mov	r21, r13
    1afc:	6e 2d       	mov	r22, r14
    1afe:	7f 2d       	mov	r23, r15
    1b00:	82 e0       	ldi	r24, 0x02	; 2
    1b02:	0e 94 f0 03 	call	0x7e0	; 0x7e0 <MAX7219_MatrixSetRow64>
    1b06:	81 2c       	mov	r8, r1
    1b08:	91 2c       	mov	r9, r1
    1b0a:	a1 2c       	mov	r10, r1
    1b0c:	b1 2c       	mov	r11, r1
    1b0e:	c1 2c       	mov	r12, r1
    1b10:	d1 2c       	mov	r13, r1
    1b12:	e1 2c       	mov	r14, r1
    1b14:	f1 2c       	mov	r15, r1
    1b16:	08 2d       	mov	r16, r8
    1b18:	19 2d       	mov	r17, r9
    1b1a:	2a 2d       	mov	r18, r10
    1b1c:	3b 2d       	mov	r19, r11
    1b1e:	4c 2d       	mov	r20, r12
    1b20:	5d 2d       	mov	r21, r13
    1b22:	6e 2d       	mov	r22, r14
    1b24:	7f 2d       	mov	r23, r15
    1b26:	81 e0       	ldi	r24, 0x01	; 1
    1b28:	0e 94 f0 03 	call	0x7e0	; 0x7e0 <MAX7219_MatrixSetRow64>
    1b2c:	bb c2       	rjmp	.+1398   	; 0x20a4 <set_bar_pos+0x914>
    1b2e:	0f 2e       	mov	r0, r31
    1b30:	f0 ec       	ldi	r31, 0xC0	; 192
    1b32:	8f 2e       	mov	r8, r31
    1b34:	f0 2d       	mov	r31, r0
    1b36:	0f 2e       	mov	r0, r31
    1b38:	f0 ec       	ldi	r31, 0xC0	; 192
    1b3a:	9f 2e       	mov	r9, r31
    1b3c:	f0 2d       	mov	r31, r0
    1b3e:	0f 2e       	mov	r0, r31
    1b40:	f0 ec       	ldi	r31, 0xC0	; 192
    1b42:	af 2e       	mov	r10, r31
    1b44:	f0 2d       	mov	r31, r0
    1b46:	0f 2e       	mov	r0, r31
    1b48:	f0 ec       	ldi	r31, 0xC0	; 192
    1b4a:	bf 2e       	mov	r11, r31
    1b4c:	f0 2d       	mov	r31, r0
    1b4e:	0f 2e       	mov	r0, r31
    1b50:	f0 ec       	ldi	r31, 0xC0	; 192
    1b52:	cf 2e       	mov	r12, r31
    1b54:	f0 2d       	mov	r31, r0
    1b56:	0f 2e       	mov	r0, r31
    1b58:	f0 ec       	ldi	r31, 0xC0	; 192
    1b5a:	df 2e       	mov	r13, r31
    1b5c:	f0 2d       	mov	r31, r0
    1b5e:	0f 2e       	mov	r0, r31
    1b60:	f0 ec       	ldi	r31, 0xC0	; 192
    1b62:	ef 2e       	mov	r14, r31
    1b64:	f0 2d       	mov	r31, r0
    1b66:	0f 2e       	mov	r0, r31
    1b68:	f0 ec       	ldi	r31, 0xC0	; 192
    1b6a:	ff 2e       	mov	r15, r31
    1b6c:	f0 2d       	mov	r31, r0
    1b6e:	08 2d       	mov	r16, r8
    1b70:	19 2d       	mov	r17, r9
    1b72:	2a 2d       	mov	r18, r10
    1b74:	3b 2d       	mov	r19, r11
    1b76:	4c 2d       	mov	r20, r12
    1b78:	5d 2d       	mov	r21, r13
    1b7a:	6e 2d       	mov	r22, r14
    1b7c:	7f 2d       	mov	r23, r15
    1b7e:	82 e0       	ldi	r24, 0x02	; 2
    1b80:	0e 94 f0 03 	call	0x7e0	; 0x7e0 <MAX7219_MatrixSetRow64>
    1b84:	81 2c       	mov	r8, r1
    1b86:	91 2c       	mov	r9, r1
    1b88:	a1 2c       	mov	r10, r1
    1b8a:	b1 2c       	mov	r11, r1
    1b8c:	c1 2c       	mov	r12, r1
    1b8e:	d1 2c       	mov	r13, r1
    1b90:	e1 2c       	mov	r14, r1
    1b92:	f1 2c       	mov	r15, r1
    1b94:	08 2d       	mov	r16, r8
    1b96:	19 2d       	mov	r17, r9
    1b98:	2a 2d       	mov	r18, r10
    1b9a:	3b 2d       	mov	r19, r11
    1b9c:	4c 2d       	mov	r20, r12
    1b9e:	5d 2d       	mov	r21, r13
    1ba0:	6e 2d       	mov	r22, r14
    1ba2:	7f 2d       	mov	r23, r15
    1ba4:	81 e0       	ldi	r24, 0x01	; 1
    1ba6:	0e 94 f0 03 	call	0x7e0	; 0x7e0 <MAX7219_MatrixSetRow64>
    1baa:	7c c2       	rjmp	.+1272   	; 0x20a4 <set_bar_pos+0x914>
    1bac:	68 94       	set
    1bae:	88 24       	eor	r8, r8
    1bb0:	87 f8       	bld	r8, 7
    1bb2:	68 94       	set
    1bb4:	99 24       	eor	r9, r9
    1bb6:	97 f8       	bld	r9, 7
    1bb8:	68 94       	set
    1bba:	aa 24       	eor	r10, r10
    1bbc:	a7 f8       	bld	r10, 7
    1bbe:	68 94       	set
    1bc0:	bb 24       	eor	r11, r11
    1bc2:	b7 f8       	bld	r11, 7
    1bc4:	68 94       	set
    1bc6:	cc 24       	eor	r12, r12
    1bc8:	c7 f8       	bld	r12, 7
    1bca:	68 94       	set
    1bcc:	dd 24       	eor	r13, r13
    1bce:	d7 f8       	bld	r13, 7
    1bd0:	68 94       	set
    1bd2:	ee 24       	eor	r14, r14
    1bd4:	e7 f8       	bld	r14, 7
    1bd6:	68 94       	set
    1bd8:	ff 24       	eor	r15, r15
    1bda:	f7 f8       	bld	r15, 7
    1bdc:	08 2d       	mov	r16, r8
    1bde:	19 2d       	mov	r17, r9
    1be0:	2a 2d       	mov	r18, r10
    1be2:	3b 2d       	mov	r19, r11
    1be4:	4c 2d       	mov	r20, r12
    1be6:	5d 2d       	mov	r21, r13
    1be8:	6e 2d       	mov	r22, r14
    1bea:	7f 2d       	mov	r23, r15
    1bec:	82 e0       	ldi	r24, 0x02	; 2
    1bee:	0e 94 f0 03 	call	0x7e0	; 0x7e0 <MAX7219_MatrixSetRow64>
    1bf2:	88 24       	eor	r8, r8
    1bf4:	83 94       	inc	r8
    1bf6:	99 24       	eor	r9, r9
    1bf8:	93 94       	inc	r9
    1bfa:	aa 24       	eor	r10, r10
    1bfc:	a3 94       	inc	r10
    1bfe:	bb 24       	eor	r11, r11
    1c00:	b3 94       	inc	r11
    1c02:	cc 24       	eor	r12, r12
    1c04:	c3 94       	inc	r12
    1c06:	dd 24       	eor	r13, r13
    1c08:	d3 94       	inc	r13
    1c0a:	ee 24       	eor	r14, r14
    1c0c:	e3 94       	inc	r14
    1c0e:	ff 24       	eor	r15, r15
    1c10:	f3 94       	inc	r15
    1c12:	08 2d       	mov	r16, r8
    1c14:	19 2d       	mov	r17, r9
    1c16:	2a 2d       	mov	r18, r10
    1c18:	3b 2d       	mov	r19, r11
    1c1a:	4c 2d       	mov	r20, r12
    1c1c:	5d 2d       	mov	r21, r13
    1c1e:	6e 2d       	mov	r22, r14
    1c20:	7f 2d       	mov	r23, r15
    1c22:	81 e0       	ldi	r24, 0x01	; 1
    1c24:	0e 94 f0 03 	call	0x7e0	; 0x7e0 <MAX7219_MatrixSetRow64>
    1c28:	3d c2       	rjmp	.+1146   	; 0x20a4 <set_bar_pos+0x914>
    1c2a:	81 2c       	mov	r8, r1
    1c2c:	91 2c       	mov	r9, r1
    1c2e:	a1 2c       	mov	r10, r1
    1c30:	b1 2c       	mov	r11, r1
    1c32:	c1 2c       	mov	r12, r1
    1c34:	d1 2c       	mov	r13, r1
    1c36:	e1 2c       	mov	r14, r1
    1c38:	f1 2c       	mov	r15, r1
    1c3a:	08 2d       	mov	r16, r8
    1c3c:	19 2d       	mov	r17, r9
    1c3e:	2a 2d       	mov	r18, r10
    1c40:	3b 2d       	mov	r19, r11
    1c42:	4c 2d       	mov	r20, r12
    1c44:	5d 2d       	mov	r21, r13
    1c46:	6e 2d       	mov	r22, r14
    1c48:	7f 2d       	mov	r23, r15
    1c4a:	82 e0       	ldi	r24, 0x02	; 2
    1c4c:	0e 94 f0 03 	call	0x7e0	; 0x7e0 <MAX7219_MatrixSetRow64>
    1c50:	0f 2e       	mov	r0, r31
    1c52:	f3 e0       	ldi	r31, 0x03	; 3
    1c54:	8f 2e       	mov	r8, r31
    1c56:	f0 2d       	mov	r31, r0
    1c58:	0f 2e       	mov	r0, r31
    1c5a:	f3 e0       	ldi	r31, 0x03	; 3
    1c5c:	9f 2e       	mov	r9, r31
    1c5e:	f0 2d       	mov	r31, r0
    1c60:	0f 2e       	mov	r0, r31
    1c62:	f3 e0       	ldi	r31, 0x03	; 3
    1c64:	af 2e       	mov	r10, r31
    1c66:	f0 2d       	mov	r31, r0
    1c68:	0f 2e       	mov	r0, r31
    1c6a:	f3 e0       	ldi	r31, 0x03	; 3
    1c6c:	bf 2e       	mov	r11, r31
    1c6e:	f0 2d       	mov	r31, r0
    1c70:	0f 2e       	mov	r0, r31
    1c72:	f3 e0       	ldi	r31, 0x03	; 3
    1c74:	cf 2e       	mov	r12, r31
    1c76:	f0 2d       	mov	r31, r0
    1c78:	0f 2e       	mov	r0, r31
    1c7a:	f3 e0       	ldi	r31, 0x03	; 3
    1c7c:	df 2e       	mov	r13, r31
    1c7e:	f0 2d       	mov	r31, r0
    1c80:	0f 2e       	mov	r0, r31
    1c82:	f3 e0       	ldi	r31, 0x03	; 3
    1c84:	ef 2e       	mov	r14, r31
    1c86:	f0 2d       	mov	r31, r0
    1c88:	0f 2e       	mov	r0, r31
    1c8a:	f3 e0       	ldi	r31, 0x03	; 3
    1c8c:	ff 2e       	mov	r15, r31
    1c8e:	f0 2d       	mov	r31, r0
    1c90:	08 2d       	mov	r16, r8
    1c92:	19 2d       	mov	r17, r9
    1c94:	2a 2d       	mov	r18, r10
    1c96:	3b 2d       	mov	r19, r11
    1c98:	4c 2d       	mov	r20, r12
    1c9a:	5d 2d       	mov	r21, r13
    1c9c:	6e 2d       	mov	r22, r14
    1c9e:	7f 2d       	mov	r23, r15
    1ca0:	81 e0       	ldi	r24, 0x01	; 1
    1ca2:	0e 94 f0 03 	call	0x7e0	; 0x7e0 <MAX7219_MatrixSetRow64>
    1ca6:	fe c1       	rjmp	.+1020   	; 0x20a4 <set_bar_pos+0x914>
    1ca8:	81 2c       	mov	r8, r1
    1caa:	91 2c       	mov	r9, r1
    1cac:	a1 2c       	mov	r10, r1
    1cae:	b1 2c       	mov	r11, r1
    1cb0:	c1 2c       	mov	r12, r1
    1cb2:	d1 2c       	mov	r13, r1
    1cb4:	e1 2c       	mov	r14, r1
    1cb6:	f1 2c       	mov	r15, r1
    1cb8:	08 2d       	mov	r16, r8
    1cba:	19 2d       	mov	r17, r9
    1cbc:	2a 2d       	mov	r18, r10
    1cbe:	3b 2d       	mov	r19, r11
    1cc0:	4c 2d       	mov	r20, r12
    1cc2:	5d 2d       	mov	r21, r13
    1cc4:	6e 2d       	mov	r22, r14
    1cc6:	7f 2d       	mov	r23, r15
    1cc8:	82 e0       	ldi	r24, 0x02	; 2
    1cca:	0e 94 f0 03 	call	0x7e0	; 0x7e0 <MAX7219_MatrixSetRow64>
    1cce:	0f 2e       	mov	r0, r31
    1cd0:	f6 e0       	ldi	r31, 0x06	; 6
    1cd2:	8f 2e       	mov	r8, r31
    1cd4:	f0 2d       	mov	r31, r0
    1cd6:	0f 2e       	mov	r0, r31
    1cd8:	f6 e0       	ldi	r31, 0x06	; 6
    1cda:	9f 2e       	mov	r9, r31
    1cdc:	f0 2d       	mov	r31, r0
    1cde:	0f 2e       	mov	r0, r31
    1ce0:	f6 e0       	ldi	r31, 0x06	; 6
    1ce2:	af 2e       	mov	r10, r31
    1ce4:	f0 2d       	mov	r31, r0
    1ce6:	0f 2e       	mov	r0, r31
    1ce8:	f6 e0       	ldi	r31, 0x06	; 6
    1cea:	bf 2e       	mov	r11, r31
    1cec:	f0 2d       	mov	r31, r0
    1cee:	0f 2e       	mov	r0, r31
    1cf0:	f6 e0       	ldi	r31, 0x06	; 6
    1cf2:	cf 2e       	mov	r12, r31
    1cf4:	f0 2d       	mov	r31, r0
    1cf6:	0f 2e       	mov	r0, r31
    1cf8:	f6 e0       	ldi	r31, 0x06	; 6
    1cfa:	df 2e       	mov	r13, r31
    1cfc:	f0 2d       	mov	r31, r0
    1cfe:	0f 2e       	mov	r0, r31
    1d00:	f6 e0       	ldi	r31, 0x06	; 6
    1d02:	ef 2e       	mov	r14, r31
    1d04:	f0 2d       	mov	r31, r0
    1d06:	0f 2e       	mov	r0, r31
    1d08:	f6 e0       	ldi	r31, 0x06	; 6
    1d0a:	ff 2e       	mov	r15, r31
    1d0c:	f0 2d       	mov	r31, r0
    1d0e:	08 2d       	mov	r16, r8
    1d10:	19 2d       	mov	r17, r9
    1d12:	2a 2d       	mov	r18, r10
    1d14:	3b 2d       	mov	r19, r11
    1d16:	4c 2d       	mov	r20, r12
    1d18:	5d 2d       	mov	r21, r13
    1d1a:	6e 2d       	mov	r22, r14
    1d1c:	7f 2d       	mov	r23, r15
    1d1e:	81 e0       	ldi	r24, 0x01	; 1
    1d20:	0e 94 f0 03 	call	0x7e0	; 0x7e0 <MAX7219_MatrixSetRow64>
    1d24:	bf c1       	rjmp	.+894    	; 0x20a4 <set_bar_pos+0x914>
    1d26:	81 2c       	mov	r8, r1
    1d28:	91 2c       	mov	r9, r1
    1d2a:	a1 2c       	mov	r10, r1
    1d2c:	b1 2c       	mov	r11, r1
    1d2e:	c1 2c       	mov	r12, r1
    1d30:	d1 2c       	mov	r13, r1
    1d32:	e1 2c       	mov	r14, r1
    1d34:	f1 2c       	mov	r15, r1
    1d36:	08 2d       	mov	r16, r8
    1d38:	19 2d       	mov	r17, r9
    1d3a:	2a 2d       	mov	r18, r10
    1d3c:	3b 2d       	mov	r19, r11
    1d3e:	4c 2d       	mov	r20, r12
    1d40:	5d 2d       	mov	r21, r13
    1d42:	6e 2d       	mov	r22, r14
    1d44:	7f 2d       	mov	r23, r15
    1d46:	82 e0       	ldi	r24, 0x02	; 2
    1d48:	0e 94 f0 03 	call	0x7e0	; 0x7e0 <MAX7219_MatrixSetRow64>
    1d4c:	0f 2e       	mov	r0, r31
    1d4e:	fc e0       	ldi	r31, 0x0C	; 12
    1d50:	8f 2e       	mov	r8, r31
    1d52:	f0 2d       	mov	r31, r0
    1d54:	0f 2e       	mov	r0, r31
    1d56:	fc e0       	ldi	r31, 0x0C	; 12
    1d58:	9f 2e       	mov	r9, r31
    1d5a:	f0 2d       	mov	r31, r0
    1d5c:	0f 2e       	mov	r0, r31
    1d5e:	fc e0       	ldi	r31, 0x0C	; 12
    1d60:	af 2e       	mov	r10, r31
    1d62:	f0 2d       	mov	r31, r0
    1d64:	0f 2e       	mov	r0, r31
    1d66:	fc e0       	ldi	r31, 0x0C	; 12
    1d68:	bf 2e       	mov	r11, r31
    1d6a:	f0 2d       	mov	r31, r0
    1d6c:	0f 2e       	mov	r0, r31
    1d6e:	fc e0       	ldi	r31, 0x0C	; 12
    1d70:	cf 2e       	mov	r12, r31
    1d72:	f0 2d       	mov	r31, r0
    1d74:	0f 2e       	mov	r0, r31
    1d76:	fc e0       	ldi	r31, 0x0C	; 12
    1d78:	df 2e       	mov	r13, r31
    1d7a:	f0 2d       	mov	r31, r0
    1d7c:	0f 2e       	mov	r0, r31
    1d7e:	fc e0       	ldi	r31, 0x0C	; 12
    1d80:	ef 2e       	mov	r14, r31
    1d82:	f0 2d       	mov	r31, r0
    1d84:	0f 2e       	mov	r0, r31
    1d86:	fc e0       	ldi	r31, 0x0C	; 12
    1d88:	ff 2e       	mov	r15, r31
    1d8a:	f0 2d       	mov	r31, r0
    1d8c:	08 2d       	mov	r16, r8
    1d8e:	19 2d       	mov	r17, r9
    1d90:	2a 2d       	mov	r18, r10
    1d92:	3b 2d       	mov	r19, r11
    1d94:	4c 2d       	mov	r20, r12
    1d96:	5d 2d       	mov	r21, r13
    1d98:	6e 2d       	mov	r22, r14
    1d9a:	7f 2d       	mov	r23, r15
    1d9c:	81 e0       	ldi	r24, 0x01	; 1
    1d9e:	0e 94 f0 03 	call	0x7e0	; 0x7e0 <MAX7219_MatrixSetRow64>
    1da2:	80 c1       	rjmp	.+768    	; 0x20a4 <set_bar_pos+0x914>
    1da4:	81 2c       	mov	r8, r1
    1da6:	91 2c       	mov	r9, r1
    1da8:	a1 2c       	mov	r10, r1
    1daa:	b1 2c       	mov	r11, r1
    1dac:	c1 2c       	mov	r12, r1
    1dae:	d1 2c       	mov	r13, r1
    1db0:	e1 2c       	mov	r14, r1
    1db2:	f1 2c       	mov	r15, r1
    1db4:	08 2d       	mov	r16, r8
    1db6:	19 2d       	mov	r17, r9
    1db8:	2a 2d       	mov	r18, r10
    1dba:	3b 2d       	mov	r19, r11
    1dbc:	4c 2d       	mov	r20, r12
    1dbe:	5d 2d       	mov	r21, r13
    1dc0:	6e 2d       	mov	r22, r14
    1dc2:	7f 2d       	mov	r23, r15
    1dc4:	82 e0       	ldi	r24, 0x02	; 2
    1dc6:	0e 94 f0 03 	call	0x7e0	; 0x7e0 <MAX7219_MatrixSetRow64>
    1dca:	0f 2e       	mov	r0, r31
    1dcc:	f8 e1       	ldi	r31, 0x18	; 24
    1dce:	8f 2e       	mov	r8, r31
    1dd0:	f0 2d       	mov	r31, r0
    1dd2:	0f 2e       	mov	r0, r31
    1dd4:	f8 e1       	ldi	r31, 0x18	; 24
    1dd6:	9f 2e       	mov	r9, r31
    1dd8:	f0 2d       	mov	r31, r0
    1dda:	0f 2e       	mov	r0, r31
    1ddc:	f8 e1       	ldi	r31, 0x18	; 24
    1dde:	af 2e       	mov	r10, r31
    1de0:	f0 2d       	mov	r31, r0
    1de2:	0f 2e       	mov	r0, r31
    1de4:	f8 e1       	ldi	r31, 0x18	; 24
    1de6:	bf 2e       	mov	r11, r31
    1de8:	f0 2d       	mov	r31, r0
    1dea:	0f 2e       	mov	r0, r31
    1dec:	f8 e1       	ldi	r31, 0x18	; 24
    1dee:	cf 2e       	mov	r12, r31
    1df0:	f0 2d       	mov	r31, r0
    1df2:	0f 2e       	mov	r0, r31
    1df4:	f8 e1       	ldi	r31, 0x18	; 24
    1df6:	df 2e       	mov	r13, r31
    1df8:	f0 2d       	mov	r31, r0
    1dfa:	0f 2e       	mov	r0, r31
    1dfc:	f8 e1       	ldi	r31, 0x18	; 24
    1dfe:	ef 2e       	mov	r14, r31
    1e00:	f0 2d       	mov	r31, r0
    1e02:	0f 2e       	mov	r0, r31
    1e04:	f8 e1       	ldi	r31, 0x18	; 24
    1e06:	ff 2e       	mov	r15, r31
    1e08:	f0 2d       	mov	r31, r0
    1e0a:	08 2d       	mov	r16, r8
    1e0c:	19 2d       	mov	r17, r9
    1e0e:	2a 2d       	mov	r18, r10
    1e10:	3b 2d       	mov	r19, r11
    1e12:	4c 2d       	mov	r20, r12
    1e14:	5d 2d       	mov	r21, r13
    1e16:	6e 2d       	mov	r22, r14
    1e18:	7f 2d       	mov	r23, r15
    1e1a:	81 e0       	ldi	r24, 0x01	; 1
    1e1c:	0e 94 f0 03 	call	0x7e0	; 0x7e0 <MAX7219_MatrixSetRow64>
    1e20:	41 c1       	rjmp	.+642    	; 0x20a4 <set_bar_pos+0x914>
    1e22:	81 2c       	mov	r8, r1
    1e24:	91 2c       	mov	r9, r1
    1e26:	a1 2c       	mov	r10, r1
    1e28:	b1 2c       	mov	r11, r1
    1e2a:	c1 2c       	mov	r12, r1
    1e2c:	d1 2c       	mov	r13, r1
    1e2e:	e1 2c       	mov	r14, r1
    1e30:	f1 2c       	mov	r15, r1
    1e32:	08 2d       	mov	r16, r8
    1e34:	19 2d       	mov	r17, r9
    1e36:	2a 2d       	mov	r18, r10
    1e38:	3b 2d       	mov	r19, r11
    1e3a:	4c 2d       	mov	r20, r12
    1e3c:	5d 2d       	mov	r21, r13
    1e3e:	6e 2d       	mov	r22, r14
    1e40:	7f 2d       	mov	r23, r15
    1e42:	82 e0       	ldi	r24, 0x02	; 2
    1e44:	0e 94 f0 03 	call	0x7e0	; 0x7e0 <MAX7219_MatrixSetRow64>
    1e48:	0f 2e       	mov	r0, r31
    1e4a:	f0 e3       	ldi	r31, 0x30	; 48
    1e4c:	8f 2e       	mov	r8, r31
    1e4e:	f0 2d       	mov	r31, r0
    1e50:	0f 2e       	mov	r0, r31
    1e52:	f0 e3       	ldi	r31, 0x30	; 48
    1e54:	9f 2e       	mov	r9, r31
    1e56:	f0 2d       	mov	r31, r0
    1e58:	0f 2e       	mov	r0, r31
    1e5a:	f0 e3       	ldi	r31, 0x30	; 48
    1e5c:	af 2e       	mov	r10, r31
    1e5e:	f0 2d       	mov	r31, r0
    1e60:	0f 2e       	mov	r0, r31
    1e62:	f0 e3       	ldi	r31, 0x30	; 48
    1e64:	bf 2e       	mov	r11, r31
    1e66:	f0 2d       	mov	r31, r0
    1e68:	0f 2e       	mov	r0, r31
    1e6a:	f0 e3       	ldi	r31, 0x30	; 48
    1e6c:	cf 2e       	mov	r12, r31
    1e6e:	f0 2d       	mov	r31, r0
    1e70:	0f 2e       	mov	r0, r31
    1e72:	f0 e3       	ldi	r31, 0x30	; 48
    1e74:	df 2e       	mov	r13, r31
    1e76:	f0 2d       	mov	r31, r0
    1e78:	0f 2e       	mov	r0, r31
    1e7a:	f0 e3       	ldi	r31, 0x30	; 48
    1e7c:	ef 2e       	mov	r14, r31
    1e7e:	f0 2d       	mov	r31, r0
    1e80:	0f 2e       	mov	r0, r31
    1e82:	f0 e3       	ldi	r31, 0x30	; 48
    1e84:	ff 2e       	mov	r15, r31
    1e86:	f0 2d       	mov	r31, r0
    1e88:	08 2d       	mov	r16, r8
    1e8a:	19 2d       	mov	r17, r9
    1e8c:	2a 2d       	mov	r18, r10
    1e8e:	3b 2d       	mov	r19, r11
    1e90:	4c 2d       	mov	r20, r12
    1e92:	5d 2d       	mov	r21, r13
    1e94:	6e 2d       	mov	r22, r14
    1e96:	7f 2d       	mov	r23, r15
    1e98:	81 e0       	ldi	r24, 0x01	; 1
    1e9a:	0e 94 f0 03 	call	0x7e0	; 0x7e0 <MAX7219_MatrixSetRow64>
    1e9e:	02 c1       	rjmp	.+516    	; 0x20a4 <set_bar_pos+0x914>
    1ea0:	81 2c       	mov	r8, r1
    1ea2:	91 2c       	mov	r9, r1
    1ea4:	a1 2c       	mov	r10, r1
    1ea6:	b1 2c       	mov	r11, r1
    1ea8:	c1 2c       	mov	r12, r1
    1eaa:	d1 2c       	mov	r13, r1
    1eac:	e1 2c       	mov	r14, r1
    1eae:	f1 2c       	mov	r15, r1
    1eb0:	08 2d       	mov	r16, r8
    1eb2:	19 2d       	mov	r17, r9
    1eb4:	2a 2d       	mov	r18, r10
    1eb6:	3b 2d       	mov	r19, r11
    1eb8:	4c 2d       	mov	r20, r12
    1eba:	5d 2d       	mov	r21, r13
    1ebc:	6e 2d       	mov	r22, r14
    1ebe:	7f 2d       	mov	r23, r15
    1ec0:	82 e0       	ldi	r24, 0x02	; 2
    1ec2:	0e 94 f0 03 	call	0x7e0	; 0x7e0 <MAX7219_MatrixSetRow64>
    1ec6:	0f 2e       	mov	r0, r31
    1ec8:	f0 e6       	ldi	r31, 0x60	; 96
    1eca:	8f 2e       	mov	r8, r31
    1ecc:	f0 2d       	mov	r31, r0
    1ece:	0f 2e       	mov	r0, r31
    1ed0:	f0 e6       	ldi	r31, 0x60	; 96
    1ed2:	9f 2e       	mov	r9, r31
    1ed4:	f0 2d       	mov	r31, r0
    1ed6:	0f 2e       	mov	r0, r31
    1ed8:	f0 e6       	ldi	r31, 0x60	; 96
    1eda:	af 2e       	mov	r10, r31
    1edc:	f0 2d       	mov	r31, r0
    1ede:	0f 2e       	mov	r0, r31
    1ee0:	f0 e6       	ldi	r31, 0x60	; 96
    1ee2:	bf 2e       	mov	r11, r31
    1ee4:	f0 2d       	mov	r31, r0
    1ee6:	0f 2e       	mov	r0, r31
    1ee8:	f0 e6       	ldi	r31, 0x60	; 96
    1eea:	cf 2e       	mov	r12, r31
    1eec:	f0 2d       	mov	r31, r0
    1eee:	0f 2e       	mov	r0, r31
    1ef0:	f0 e6       	ldi	r31, 0x60	; 96
    1ef2:	df 2e       	mov	r13, r31
    1ef4:	f0 2d       	mov	r31, r0
    1ef6:	0f 2e       	mov	r0, r31
    1ef8:	f0 e6       	ldi	r31, 0x60	; 96
    1efa:	ef 2e       	mov	r14, r31
    1efc:	f0 2d       	mov	r31, r0
    1efe:	0f 2e       	mov	r0, r31
    1f00:	f0 e6       	ldi	r31, 0x60	; 96
    1f02:	ff 2e       	mov	r15, r31
    1f04:	f0 2d       	mov	r31, r0
    1f06:	08 2d       	mov	r16, r8
    1f08:	19 2d       	mov	r17, r9
    1f0a:	2a 2d       	mov	r18, r10
    1f0c:	3b 2d       	mov	r19, r11
    1f0e:	4c 2d       	mov	r20, r12
    1f10:	5d 2d       	mov	r21, r13
    1f12:	6e 2d       	mov	r22, r14
    1f14:	7f 2d       	mov	r23, r15
    1f16:	81 e0       	ldi	r24, 0x01	; 1
    1f18:	0e 94 f0 03 	call	0x7e0	; 0x7e0 <MAX7219_MatrixSetRow64>
    1f1c:	c3 c0       	rjmp	.+390    	; 0x20a4 <set_bar_pos+0x914>
    1f1e:	81 2c       	mov	r8, r1
    1f20:	91 2c       	mov	r9, r1
    1f22:	a1 2c       	mov	r10, r1
    1f24:	b1 2c       	mov	r11, r1
    1f26:	c1 2c       	mov	r12, r1
    1f28:	d1 2c       	mov	r13, r1
    1f2a:	e1 2c       	mov	r14, r1
    1f2c:	f1 2c       	mov	r15, r1
    1f2e:	08 2d       	mov	r16, r8
    1f30:	19 2d       	mov	r17, r9
    1f32:	2a 2d       	mov	r18, r10
    1f34:	3b 2d       	mov	r19, r11
    1f36:	4c 2d       	mov	r20, r12
    1f38:	5d 2d       	mov	r21, r13
    1f3a:	6e 2d       	mov	r22, r14
    1f3c:	7f 2d       	mov	r23, r15
    1f3e:	82 e0       	ldi	r24, 0x02	; 2
    1f40:	0e 94 f0 03 	call	0x7e0	; 0x7e0 <MAX7219_MatrixSetRow64>
    1f44:	0f 2e       	mov	r0, r31
    1f46:	f0 ec       	ldi	r31, 0xC0	; 192
    1f48:	8f 2e       	mov	r8, r31
    1f4a:	f0 2d       	mov	r31, r0
    1f4c:	0f 2e       	mov	r0, r31
    1f4e:	f0 ec       	ldi	r31, 0xC0	; 192
    1f50:	9f 2e       	mov	r9, r31
    1f52:	f0 2d       	mov	r31, r0
    1f54:	0f 2e       	mov	r0, r31
    1f56:	f0 ec       	ldi	r31, 0xC0	; 192
    1f58:	af 2e       	mov	r10, r31
    1f5a:	f0 2d       	mov	r31, r0
    1f5c:	0f 2e       	mov	r0, r31
    1f5e:	f0 ec       	ldi	r31, 0xC0	; 192
    1f60:	bf 2e       	mov	r11, r31
    1f62:	f0 2d       	mov	r31, r0
    1f64:	0f 2e       	mov	r0, r31
    1f66:	f0 ec       	ldi	r31, 0xC0	; 192
    1f68:	cf 2e       	mov	r12, r31
    1f6a:	f0 2d       	mov	r31, r0
    1f6c:	0f 2e       	mov	r0, r31
    1f6e:	f0 ec       	ldi	r31, 0xC0	; 192
    1f70:	df 2e       	mov	r13, r31
    1f72:	f0 2d       	mov	r31, r0
    1f74:	0f 2e       	mov	r0, r31
    1f76:	f0 ec       	ldi	r31, 0xC0	; 192
    1f78:	ef 2e       	mov	r14, r31
    1f7a:	f0 2d       	mov	r31, r0
    1f7c:	0f 2e       	mov	r0, r31
    1f7e:	f0 ec       	ldi	r31, 0xC0	; 192
    1f80:	ff 2e       	mov	r15, r31
    1f82:	f0 2d       	mov	r31, r0
    1f84:	08 2d       	mov	r16, r8
    1f86:	19 2d       	mov	r17, r9
    1f88:	2a 2d       	mov	r18, r10
    1f8a:	3b 2d       	mov	r19, r11
    1f8c:	4c 2d       	mov	r20, r12
    1f8e:	5d 2d       	mov	r21, r13
    1f90:	6e 2d       	mov	r22, r14
    1f92:	7f 2d       	mov	r23, r15
    1f94:	81 e0       	ldi	r24, 0x01	; 1
    1f96:	0e 94 f0 03 	call	0x7e0	; 0x7e0 <MAX7219_MatrixSetRow64>
    1f9a:	84 c0       	rjmp	.+264    	; 0x20a4 <set_bar_pos+0x914>
    1f9c:	81 2c       	mov	r8, r1
    1f9e:	91 2c       	mov	r9, r1
    1fa0:	a1 2c       	mov	r10, r1
    1fa2:	b1 2c       	mov	r11, r1
    1fa4:	c1 2c       	mov	r12, r1
    1fa6:	d1 2c       	mov	r13, r1
    1fa8:	e1 2c       	mov	r14, r1
    1faa:	f1 2c       	mov	r15, r1
    1fac:	08 2d       	mov	r16, r8
    1fae:	19 2d       	mov	r17, r9
    1fb0:	2a 2d       	mov	r18, r10
    1fb2:	3b 2d       	mov	r19, r11
    1fb4:	4c 2d       	mov	r20, r12
    1fb6:	5d 2d       	mov	r21, r13
    1fb8:	6e 2d       	mov	r22, r14
    1fba:	7f 2d       	mov	r23, r15
    1fbc:	82 e0       	ldi	r24, 0x02	; 2
    1fbe:	0e 94 f0 03 	call	0x7e0	; 0x7e0 <MAX7219_MatrixSetRow64>
    1fc2:	68 94       	set
    1fc4:	88 24       	eor	r8, r8
    1fc6:	87 f8       	bld	r8, 7
    1fc8:	68 94       	set
    1fca:	99 24       	eor	r9, r9
    1fcc:	97 f8       	bld	r9, 7
    1fce:	68 94       	set
    1fd0:	aa 24       	eor	r10, r10
    1fd2:	a7 f8       	bld	r10, 7
    1fd4:	68 94       	set
    1fd6:	bb 24       	eor	r11, r11
    1fd8:	b7 f8       	bld	r11, 7
    1fda:	68 94       	set
    1fdc:	cc 24       	eor	r12, r12
    1fde:	c7 f8       	bld	r12, 7
    1fe0:	68 94       	set
    1fe2:	dd 24       	eor	r13, r13
    1fe4:	d7 f8       	bld	r13, 7
    1fe6:	68 94       	set
    1fe8:	ee 24       	eor	r14, r14
    1fea:	e7 f8       	bld	r14, 7
    1fec:	68 94       	set
    1fee:	ff 24       	eor	r15, r15
    1ff0:	f7 f8       	bld	r15, 7
    1ff2:	08 2d       	mov	r16, r8
    1ff4:	19 2d       	mov	r17, r9
    1ff6:	2a 2d       	mov	r18, r10
    1ff8:	3b 2d       	mov	r19, r11
    1ffa:	4c 2d       	mov	r20, r12
    1ffc:	5d 2d       	mov	r21, r13
    1ffe:	6e 2d       	mov	r22, r14
    2000:	7f 2d       	mov	r23, r15
    2002:	81 e0       	ldi	r24, 0x01	; 1
    2004:	0e 94 f0 03 	call	0x7e0	; 0x7e0 <MAX7219_MatrixSetRow64>
    2008:	4d c0       	rjmp	.+154    	; 0x20a4 <set_bar_pos+0x914>
    200a:	81 2c       	mov	r8, r1
    200c:	0f 2e       	mov	r0, r31
    200e:	f8 e1       	ldi	r31, 0x18	; 24
    2010:	9f 2e       	mov	r9, r31
    2012:	f0 2d       	mov	r31, r0
    2014:	0f 2e       	mov	r0, r31
    2016:	f8 e2       	ldi	r31, 0x28	; 40
    2018:	af 2e       	mov	r10, r31
    201a:	f0 2d       	mov	r31, r0
    201c:	68 94       	set
    201e:	bb 24       	eor	r11, r11
    2020:	b3 f8       	bld	r11, 3
    2022:	68 94       	set
    2024:	cc 24       	eor	r12, r12
    2026:	c3 f8       	bld	r12, 3
    2028:	0f 2e       	mov	r0, r31
    202a:	fc e0       	ldi	r31, 0x0C	; 12
    202c:	df 2e       	mov	r13, r31
    202e:	f0 2d       	mov	r31, r0
    2030:	0f 2e       	mov	r0, r31
    2032:	fe e0       	ldi	r31, 0x0E	; 14
    2034:	ef 2e       	mov	r14, r31
    2036:	f0 2d       	mov	r31, r0
    2038:	0f 2e       	mov	r0, r31
    203a:	f6 e0       	ldi	r31, 0x06	; 6
    203c:	ff 2e       	mov	r15, r31
    203e:	f0 2d       	mov	r31, r0
    2040:	08 2d       	mov	r16, r8
    2042:	19 2d       	mov	r17, r9
    2044:	2a 2d       	mov	r18, r10
    2046:	3b 2d       	mov	r19, r11
    2048:	4c 2d       	mov	r20, r12
    204a:	5d 2d       	mov	r21, r13
    204c:	6e 2d       	mov	r22, r14
    204e:	7f 2d       	mov	r23, r15
    2050:	82 e0       	ldi	r24, 0x02	; 2
    2052:	0e 94 f0 03 	call	0x7e0	; 0x7e0 <MAX7219_MatrixSetRow64>
    2056:	81 2c       	mov	r8, r1
    2058:	0f 2e       	mov	r0, r31
    205a:	f8 e1       	ldi	r31, 0x18	; 24
    205c:	9f 2e       	mov	r9, r31
    205e:	f0 2d       	mov	r31, r0
    2060:	0f 2e       	mov	r0, r31
    2062:	f8 e2       	ldi	r31, 0x28	; 40
    2064:	af 2e       	mov	r10, r31
    2066:	f0 2d       	mov	r31, r0
    2068:	68 94       	set
    206a:	bb 24       	eor	r11, r11
    206c:	b3 f8       	bld	r11, 3
    206e:	68 94       	set
    2070:	cc 24       	eor	r12, r12
    2072:	c3 f8       	bld	r12, 3
    2074:	0f 2e       	mov	r0, r31
    2076:	fc e0       	ldi	r31, 0x0C	; 12
    2078:	df 2e       	mov	r13, r31
    207a:	f0 2d       	mov	r31, r0
    207c:	0f 2e       	mov	r0, r31
    207e:	fe e0       	ldi	r31, 0x0E	; 14
    2080:	ef 2e       	mov	r14, r31
    2082:	f0 2d       	mov	r31, r0
    2084:	0f 2e       	mov	r0, r31
    2086:	f6 e0       	ldi	r31, 0x06	; 6
    2088:	ff 2e       	mov	r15, r31
    208a:	f0 2d       	mov	r31, r0
    208c:	08 2d       	mov	r16, r8
    208e:	19 2d       	mov	r17, r9
    2090:	2a 2d       	mov	r18, r10
    2092:	3b 2d       	mov	r19, r11
    2094:	4c 2d       	mov	r20, r12
    2096:	5d 2d       	mov	r21, r13
    2098:	6e 2d       	mov	r22, r14
    209a:	7f 2d       	mov	r23, r15
    209c:	81 e0       	ldi	r24, 0x01	; 1
    209e:	0e 94 f0 03 	call	0x7e0	; 0x7e0 <MAX7219_MatrixSetRow64>
    20a2:	00 00       	nop
    20a4:	00 00       	nop
    20a6:	0f 90       	pop	r0
    20a8:	0f 90       	pop	r0
    20aa:	df 91       	pop	r29
    20ac:	cf 91       	pop	r28
    20ae:	1f 91       	pop	r17
    20b0:	0f 91       	pop	r16
    20b2:	ff 90       	pop	r15
    20b4:	ef 90       	pop	r14
    20b6:	df 90       	pop	r13
    20b8:	cf 90       	pop	r12
    20ba:	bf 90       	pop	r11
    20bc:	af 90       	pop	r10
    20be:	9f 90       	pop	r9
    20c0:	8f 90       	pop	r8
    20c2:	08 95       	ret

000020c4 <Tick1>:
unsigned char key = 0;
//unsigned char sequence = 0;
//int scoreA = 1;
char intStr[10];
void Tick1()
{
    20c4:	8f 92       	push	r8
    20c6:	9f 92       	push	r9
    20c8:	af 92       	push	r10
    20ca:	bf 92       	push	r11
    20cc:	cf 92       	push	r12
    20ce:	df 92       	push	r13
    20d0:	ef 92       	push	r14
    20d2:	ff 92       	push	r15
    20d4:	0f 93       	push	r16
    20d6:	1f 93       	push	r17
    20d8:	cf 93       	push	r28
    20da:	df 93       	push	r29
    20dc:	cd b7       	in	r28, 0x3d	; 61
    20de:	de b7       	in	r29, 0x3e	; 62
    20e0:	28 97       	sbiw	r28, 0x08	; 8
    20e2:	0f b6       	in	r0, 0x3f	; 63
    20e4:	f8 94       	cli
    20e6:	de bf       	out	0x3e, r29	; 62
    20e8:	0f be       	out	0x3f, r0	; 63
    20ea:	cd bf       	out	0x3d, r28	; 61
    switch(mainState)
    20ec:	80 91 bc 01 	lds	r24, 0x01BC	; 0x8001bc <mainState>
    20f0:	88 2f       	mov	r24, r24
    20f2:	90 e0       	ldi	r25, 0x00	; 0
    20f4:	82 30       	cpi	r24, 0x02	; 2
    20f6:	91 05       	cpc	r25, r1
    20f8:	a9 f1       	breq	.+106    	; 0x2164 <Tick1+0xa0>
    20fa:	83 30       	cpi	r24, 0x03	; 3
    20fc:	91 05       	cpc	r25, r1
    20fe:	2c f4       	brge	.+10     	; 0x210a <Tick1+0x46>
    2100:	00 97       	sbiw	r24, 0x00	; 0
    2102:	59 f0       	breq	.+22     	; 0x211a <Tick1+0x56>
    2104:	01 97       	sbiw	r24, 0x01	; 1
    2106:	69 f0       	breq	.+26     	; 0x2122 <Tick1+0x5e>
            MAX7219_MatrixInit();
            MAX7219_MatrixUpdate();
            if(sequence >= sizeof(test01)/sizeof(test01[0])){mainState = score_display;}
            break;
        case count_B: mainState = menu; break;
        default: break;
    2108:	78 c0       	rjmp	.+240    	; 0x21fa <Tick1+0x136>
//unsigned char sequence = 0;
//int scoreA = 1;
char intStr[10];
void Tick1()
{
    switch(mainState)
    210a:	83 30       	cpi	r24, 0x03	; 3
    210c:	91 05       	cpc	r25, r1
    210e:	09 f4       	brne	.+2      	; 0x2112 <Tick1+0x4e>
    2110:	61 c0       	rjmp	.+194    	; 0x21d4 <Tick1+0x110>
    2112:	04 97       	sbiw	r24, 0x04	; 4
    2114:	09 f4       	brne	.+2      	; 0x2118 <Tick1+0x54>
    2116:	6a c0       	rjmp	.+212    	; 0x21ec <Tick1+0x128>
            MAX7219_MatrixInit();
            MAX7219_MatrixUpdate();
            if(sequence >= sizeof(test01)/sizeof(test01[0])){mainState = score_display;}
            break;
        case count_B: mainState = menu; break;
        default: break;
    2118:	70 c0       	rjmp	.+224    	; 0x21fa <Tick1+0x136>
char intStr[10];
void Tick1()
{
    switch(mainState)
    {
        case Start: {mainState = menu; break;}
    211a:	81 e0       	ldi	r24, 0x01	; 1
    211c:	80 93 bc 01 	sts	0x01BC, r24	; 0x8001bc <mainState>
    2120:	6c c0       	rjmp	.+216    	; 0x21fa <Tick1+0x136>
        case menu: {
            if(GetKeypadKey() == 'A'){mainState = count_A; sequence = 0; itoa(scoreA, intStr, 10);LCD_DisplayString(1, intStr); break;}
    2122:	0e 94 e2 01 	call	0x3c4	; 0x3c4 <GetKeypadKey>
    2126:	81 34       	cpi	r24, 0x41	; 65
    2128:	a1 f4       	brne	.+40     	; 0x2152 <Tick1+0x8e>
    212a:	83 e0       	ldi	r24, 0x03	; 3
    212c:	80 93 bc 01 	sts	0x01BC, r24	; 0x8001bc <mainState>
    2130:	10 92 8b 01 	sts	0x018B, r1	; 0x80018b <sequence>
    2134:	80 91 04 01 	lds	r24, 0x0104	; 0x800104 <scoreA>
    2138:	90 91 05 01 	lds	r25, 0x0105	; 0x800105 <scoreA+0x1>
    213c:	4a e0       	ldi	r20, 0x0A	; 10
    213e:	50 e0       	ldi	r21, 0x00	; 0
    2140:	62 eb       	ldi	r22, 0xB2	; 178
    2142:	71 e0       	ldi	r23, 0x01	; 1
    2144:	52 d4       	rcall	.+2212   	; 0x29ea <itoa>
    2146:	62 eb       	ldi	r22, 0xB2	; 178
    2148:	71 e0       	ldi	r23, 0x01	; 1
    214a:	81 e0       	ldi	r24, 0x01	; 1
    214c:	0e 94 2c 01 	call	0x258	; 0x258 <LCD_DisplayString>
    2150:	54 c0       	rjmp	.+168    	; 0x21fa <Tick1+0x136>
            else if(GetKeypadKey() == 'B'){mainState = count_B; break;}
    2152:	0e 94 e2 01 	call	0x3c4	; 0x3c4 <GetKeypadKey>
    2156:	82 34       	cpi	r24, 0x42	; 66
    2158:	09 f0       	breq	.+2      	; 0x215c <Tick1+0x98>
    215a:	4c c0       	rjmp	.+152    	; 0x21f4 <Tick1+0x130>
    215c:	84 e0       	ldi	r24, 0x04	; 4
    215e:	80 93 bc 01 	sts	0x01BC, r24	; 0x8001bc <mainState>
    2162:	4b c0       	rjmp	.+150    	; 0x21fa <Tick1+0x136>
            else{break;}
        }
        case score_display:{
            itoa(scoreA, intStr, 10);
    2164:	80 91 04 01 	lds	r24, 0x0104	; 0x800104 <scoreA>
    2168:	90 91 05 01 	lds	r25, 0x0105	; 0x800105 <scoreA+0x1>
    216c:	4a e0       	ldi	r20, 0x0A	; 10
    216e:	50 e0       	ldi	r21, 0x00	; 0
    2170:	62 eb       	ldi	r22, 0xB2	; 178
    2172:	71 e0       	ldi	r23, 0x01	; 1
    2174:	3a d4       	rcall	.+2164   	; 0x29ea <itoa>
            LCD_DisplayString(1, intStr);
    2176:	62 eb       	ldi	r22, 0xB2	; 178
    2178:	71 e0       	ldi	r23, 0x01	; 1
    217a:	81 e0       	ldi	r24, 0x01	; 1
    217c:	0e 94 2c 01 	call	0x258	; 0x258 <LCD_DisplayString>
            MAX7219_MatrixInit();
    2180:	0e 94 99 03 	call	0x732	; 0x732 <MAX7219_MatrixInit>
            MAX7219_MatrixUpdate();
    2184:	0e 94 ea 05 	call	0xbd4	; 0xbd4 <MAX7219_MatrixUpdate>
            waitTime(200);
    2188:	88 ec       	ldi	r24, 0xC8	; 200
    218a:	90 e0       	ldi	r25, 0x00	; 0
    218c:	b6 d9       	rcall	.-3220   	; 0x14fa <waitTime>
            for (int i = 0; i < 4; i++)
    218e:	1a 82       	std	Y+2, r1	; 0x02
    2190:	19 82       	std	Y+1, r1	; 0x01
            {
                displayFin();
    2192:	0e c0       	rjmp	.+28     	; 0x21b0 <Tick1+0xec>
                waitTime(80);
    2194:	67 d8       	rcall	.-3890   	; 0x1264 <displayFin>
    2196:	80 e5       	ldi	r24, 0x50	; 80
    2198:	90 e0       	ldi	r25, 0x00	; 0
                displayBlank();
    219a:	af d9       	rcall	.-3234   	; 0x14fa <waitTime>
    219c:	0e 94 86 08 	call	0x110c	; 0x110c <displayBlank>
                waitTime(80);
    21a0:	80 e5       	ldi	r24, 0x50	; 80
    21a2:	90 e0       	ldi	r25, 0x00	; 0
    21a4:	aa d9       	rcall	.-3244   	; 0x14fa <waitTime>
            itoa(scoreA, intStr, 10);
            LCD_DisplayString(1, intStr);
            MAX7219_MatrixInit();
            MAX7219_MatrixUpdate();
            waitTime(200);
            for (int i = 0; i < 4; i++)
    21a6:	89 81       	ldd	r24, Y+1	; 0x01
    21a8:	9a 81       	ldd	r25, Y+2	; 0x02
    21aa:	01 96       	adiw	r24, 0x01	; 1
    21ac:	9a 83       	std	Y+2, r25	; 0x02
    21ae:	89 83       	std	Y+1, r24	; 0x01
    21b0:	89 81       	ldd	r24, Y+1	; 0x01
    21b2:	9a 81       	ldd	r25, Y+2	; 0x02
                displayFin();
                waitTime(80);
                displayBlank();
                waitTime(80);
            }
            displayRank();
    21b4:	04 97       	sbiw	r24, 0x04	; 4
    21b6:	74 f3       	brlt	.-36     	; 0x2194 <Tick1+0xd0>
            waitTime(600);
    21b8:	0c d9       	rcall	.-3560   	; 0x13d2 <displayRank>
    21ba:	88 e5       	ldi	r24, 0x58	; 88
    21bc:	92 e0       	ldi	r25, 0x02	; 2
    21be:	9d d9       	rcall	.-3270   	; 0x14fa <waitTime>
            while(1){if(GetKeypadKey()!='\0')break;}
    21c0:	0e 94 e2 01 	call	0x3c4	; 0x3c4 <GetKeypadKey>
    21c4:	88 23       	and	r24, r24
    21c6:	09 f4       	brne	.+2      	; 0x21ca <Tick1+0x106>
    21c8:	fb cf       	rjmp	.-10     	; 0x21c0 <Tick1+0xfc>
    21ca:	00 00       	nop
            
            mainState = menu;
    21cc:	81 e0       	ldi	r24, 0x01	; 1
    21ce:	80 93 bc 01 	sts	0x01BC, r24	; 0x8001bc <mainState>
            break;
    21d2:	13 c0       	rjmp	.+38     	; 0x21fa <Tick1+0x136>
        }        
        case count_A: 
            MAX7219_MatrixInit();
    21d4:	0e 94 99 03 	call	0x732	; 0x732 <MAX7219_MatrixInit>
            MAX7219_MatrixUpdate();
    21d8:	0e 94 ea 05 	call	0xbd4	; 0xbd4 <MAX7219_MatrixUpdate>
            if(sequence >= sizeof(test01)/sizeof(test01[0])){mainState = score_display;}
    21dc:	80 91 8b 01 	lds	r24, 0x018B	; 0x80018b <sequence>
    21e0:	80 32       	cpi	r24, 0x20	; 32
    21e2:	50 f0       	brcs	.+20     	; 0x21f8 <Tick1+0x134>
    21e4:	82 e0       	ldi	r24, 0x02	; 2
    21e6:	80 93 bc 01 	sts	0x01BC, r24	; 0x8001bc <mainState>
            break;
    21ea:	06 c0       	rjmp	.+12     	; 0x21f8 <Tick1+0x134>
        case count_B: mainState = menu; break;
    21ec:	81 e0       	ldi	r24, 0x01	; 1
    21ee:	80 93 bc 01 	sts	0x01BC, r24	; 0x8001bc <mainState>
    21f2:	03 c0       	rjmp	.+6      	; 0x21fa <Tick1+0x136>
    {
        case Start: {mainState = menu; break;}
        case menu: {
            if(GetKeypadKey() == 'A'){mainState = count_A; sequence = 0; itoa(scoreA, intStr, 10);LCD_DisplayString(1, intStr); break;}
            else if(GetKeypadKey() == 'B'){mainState = count_B; break;}
            else{break;}
    21f4:	00 00       	nop
    21f6:	01 c0       	rjmp	.+2      	; 0x21fa <Tick1+0x136>
        }        
        case count_A: 
            MAX7219_MatrixInit();
            MAX7219_MatrixUpdate();
            if(sequence >= sizeof(test01)/sizeof(test01[0])){mainState = score_display;}
            break;
    21f8:	00 00       	nop
        case count_B: mainState = menu; break;
        default: break;
    }
    switch(mainState)
    21fa:	80 91 bc 01 	lds	r24, 0x01BC	; 0x8001bc <mainState>
    21fe:	88 2f       	mov	r24, r24
    2200:	90 e0       	ldi	r25, 0x00	; 0
    2202:	81 30       	cpi	r24, 0x01	; 1
    2204:	91 05       	cpc	r25, r1
    2206:	51 f0       	breq	.+20     	; 0x221c <Tick1+0x158>
    2208:	83 30       	cpi	r24, 0x03	; 3
    220a:	91 05       	cpc	r25, r1
    220c:	09 f4       	brne	.+2      	; 0x2210 <Tick1+0x14c>
    220e:	4a c0       	rjmp	.+148    	; 0x22a4 <Tick1+0x1e0>
    2210:	89 2b       	or	r24, r25
    2212:	09 f0       	breq	.+2      	; 0x2216 <Tick1+0x152>
    2214:	8e c1       	rjmp	.+796    	; 0x2532 <Tick1+0x46e>
    {
        case Start: menuFlag =0; break;
    2216:	10 92 8c 01 	sts	0x018C, r1	; 0x80018c <menuFlag>
    221a:	8e c1       	rjmp	.+796    	; 0x2538 <Tick1+0x474>
        case menu:
            if (menuFlag == 0)
    221c:	80 91 8c 01 	lds	r24, 0x018C	; 0x80018c <menuFlag>
    2220:	88 23       	and	r24, r24
    2222:	31 f5       	brne	.+76     	; 0x2270 <Tick1+0x1ac>
            {
                itoa(scoreA, intStr, 10);
    2224:	80 91 04 01 	lds	r24, 0x0104	; 0x800104 <scoreA>
    2228:	90 91 05 01 	lds	r25, 0x0105	; 0x800105 <scoreA+0x1>
    222c:	4a e0       	ldi	r20, 0x0A	; 10
    222e:	50 e0       	ldi	r21, 0x00	; 0
    2230:	62 eb       	ldi	r22, 0xB2	; 178
    2232:	71 e0       	ldi	r23, 0x01	; 1
    2234:	da d3       	rcall	.+1972   	; 0x29ea <itoa>
                LCD_DisplayString(1, "A = test_song, B = SenbonZakura");
    2236:	66 e6       	ldi	r22, 0x66	; 102
    2238:	71 e0       	ldi	r23, 0x01	; 1
    223a:	81 e0       	ldi	r24, 0x01	; 1
    223c:	0e 94 2c 01 	call	0x258	; 0x258 <LCD_DisplayString>
                //LCD_DisplayString(1, intStr);
                for (int i = 0; i < 3; i++)
    2240:	1c 82       	std	Y+4, r1	; 0x04
    2242:	1b 82       	std	Y+3, r1	; 0x03
                {
                    displayTitle();
    2244:	0f c0       	rjmp	.+30     	; 0x2264 <Tick1+0x1a0>
                    waitTime(20);
    2246:	0e 94 90 08 	call	0x1120	; 0x1120 <displayTitle>
    224a:	84 e1       	ldi	r24, 0x14	; 20
    224c:	90 e0       	ldi	r25, 0x00	; 0
                    displayBlank();
    224e:	55 d9       	rcall	.-3414   	; 0x14fa <waitTime>
    2250:	0e 94 86 08 	call	0x110c	; 0x110c <displayBlank>
                    waitTime(20);
    2254:	84 e1       	ldi	r24, 0x14	; 20
    2256:	90 e0       	ldi	r25, 0x00	; 0
    2258:	50 d9       	rcall	.-3424   	; 0x14fa <waitTime>
            if (menuFlag == 0)
            {
                itoa(scoreA, intStr, 10);
                LCD_DisplayString(1, "A = test_song, B = SenbonZakura");
                //LCD_DisplayString(1, intStr);
                for (int i = 0; i < 3; i++)
    225a:	8b 81       	ldd	r24, Y+3	; 0x03
    225c:	9c 81       	ldd	r25, Y+4	; 0x04
    225e:	01 96       	adiw	r24, 0x01	; 1
    2260:	9c 83       	std	Y+4, r25	; 0x04
    2262:	8b 83       	std	Y+3, r24	; 0x03
    2264:	8b 81       	ldd	r24, Y+3	; 0x03
    2266:	9c 81       	ldd	r25, Y+4	; 0x04
    2268:	03 97       	sbiw	r24, 0x03	; 3
    226a:	6c f3       	brlt	.-38     	; 0x2246 <Tick1+0x182>
                    displayTitle();
                    waitTime(20);
                    displayBlank();
                    waitTime(20);
                }
                displayTitle();             
    226c:	0e 94 90 08 	call	0x1120	; 0x1120 <displayTitle>
            }
            if (GetKeypadKey() == '*')
    2270:	0e 94 e2 01 	call	0x3c4	; 0x3c4 <GetKeypadKey>
    2274:	8a 32       	cpi	r24, 0x2A	; 42
    2276:	29 f4       	brne	.+10     	; 0x2282 <Tick1+0x1be>
            {
                MAX7219_MatrixLShift(1);
    2278:	81 e0       	ldi	r24, 0x01	; 1
    227a:	0e 94 1c 05 	call	0xa38	; 0xa38 <MAX7219_MatrixLShift>
                MAX7219_MatrixUpdate();
    227e:	0e 94 ea 05 	call	0xbd4	; 0xbd4 <MAX7219_MatrixUpdate>
            }
            if (GetKeypadKey() == '#')
    2282:	0e 94 e2 01 	call	0x3c4	; 0x3c4 <GetKeypadKey>
    2286:	83 32       	cpi	r24, 0x23	; 35
    2288:	29 f4       	brne	.+10     	; 0x2294 <Tick1+0x1d0>
            {
                MAX7219_MatrixRShift(1);
    228a:	81 e0       	ldi	r24, 0x01	; 1
    228c:	0e 94 5e 04 	call	0x8bc	; 0x8bc <MAX7219_MatrixRShift>
                MAX7219_MatrixUpdate();
    2290:	0e 94 ea 05 	call	0xbd4	; 0xbd4 <MAX7219_MatrixUpdate>
            }
            menuFlag = 1;
    2294:	81 e0       	ldi	r24, 0x01	; 1
    2296:	80 93 8c 01 	sts	0x018C, r24	; 0x80018c <menuFlag>
            scoreA = 0;
    229a:	10 92 05 01 	sts	0x0105, r1	; 0x800105 <scoreA+0x1>
    229e:	10 92 04 01 	sts	0x0104, r1	; 0x800104 <scoreA>
            break;
    22a2:	4a c1       	rjmp	.+660    	; 0x2538 <Tick1+0x474>
            
        case count_A:
            menuFlag = 0;
    22a4:	10 92 8c 01 	sts	0x018C, r1	; 0x80018c <menuFlag>
            //LCD_DisplayString(1,"test_song");
            if(sequence == 0)
    22a8:	80 91 8b 01 	lds	r24, 0x018B	; 0x80018b <sequence>
    22ac:	88 23       	and	r24, r24
    22ae:	09 f0       	breq	.+2      	; 0x22b2 <Tick1+0x1ee>
    22b0:	45 c0       	rjmp	.+138    	; 0x233c <Tick1+0x278>
            {
                MAX7219_MatrixSetRow64(3,symbol[2]);
    22b2:	81 2c       	mov	r8, r1
    22b4:	0f 2e       	mov	r0, r31
    22b6:	f8 e1       	ldi	r31, 0x18	; 24
    22b8:	9f 2e       	mov	r9, r31
    22ba:	f0 2d       	mov	r31, r0
    22bc:	0f 2e       	mov	r0, r31
    22be:	f8 e2       	ldi	r31, 0x28	; 40
    22c0:	af 2e       	mov	r10, r31
    22c2:	f0 2d       	mov	r31, r0
    22c4:	68 94       	set
    22c6:	bb 24       	eor	r11, r11
    22c8:	b3 f8       	bld	r11, 3
    22ca:	68 94       	set
    22cc:	cc 24       	eor	r12, r12
    22ce:	c3 f8       	bld	r12, 3
    22d0:	0f 2e       	mov	r0, r31
    22d2:	fc e0       	ldi	r31, 0x0C	; 12
    22d4:	df 2e       	mov	r13, r31
    22d6:	f0 2d       	mov	r31, r0
    22d8:	0f 2e       	mov	r0, r31
    22da:	fe e0       	ldi	r31, 0x0E	; 14
    22dc:	ef 2e       	mov	r14, r31
    22de:	f0 2d       	mov	r31, r0
    22e0:	0f 2e       	mov	r0, r31
    22e2:	f6 e0       	ldi	r31, 0x06	; 6
    22e4:	ff 2e       	mov	r15, r31
    22e6:	f0 2d       	mov	r31, r0
    22e8:	08 2d       	mov	r16, r8
    22ea:	19 2d       	mov	r17, r9
    22ec:	2a 2d       	mov	r18, r10
    22ee:	3b 2d       	mov	r19, r11
    22f0:	4c 2d       	mov	r20, r12
    22f2:	5d 2d       	mov	r21, r13
    22f4:	6e 2d       	mov	r22, r14
    22f6:	7f 2d       	mov	r23, r15
    22f8:	83 e0       	ldi	r24, 0x03	; 3
    22fa:	0e 94 f0 03 	call	0x7e0	; 0x7e0 <MAX7219_MatrixSetRow64>
                MAX7219_MatrixSetRow64(0,trans(test01[0]));
    22fe:	80 91 06 01 	lds	r24, 0x0106	; 0x800106 <test01>
    2302:	21 d9       	rcall	.-3518   	; 0x1546 <trans>
    2304:	82 2e       	mov	r8, r18
    2306:	93 2e       	mov	r9, r19
    2308:	a4 2e       	mov	r10, r20
    230a:	b5 2e       	mov	r11, r21
    230c:	c6 2e       	mov	r12, r22
    230e:	d7 2e       	mov	r13, r23
    2310:	e8 2e       	mov	r14, r24
    2312:	f9 2e       	mov	r15, r25
    2314:	08 2d       	mov	r16, r8
    2316:	19 2d       	mov	r17, r9
    2318:	2a 2d       	mov	r18, r10
    231a:	3b 2d       	mov	r19, r11
    231c:	4c 2d       	mov	r20, r12
    231e:	5d 2d       	mov	r21, r13
    2320:	6e 2d       	mov	r22, r14
    2322:	7f 2d       	mov	r23, r15
    2324:	80 e0       	ldi	r24, 0x00	; 0
    2326:	0e 94 f0 03 	call	0x7e0	; 0x7e0 <MAX7219_MatrixSetRow64>
                MAX7219_MatrixUpdate();
    232a:	0e 94 ea 05 	call	0xbd4	; 0xbd4 <MAX7219_MatrixUpdate>
                waitTime(100);
    232e:	84 e6       	ldi	r24, 0x64	; 100
    2330:	90 e0       	ldi	r25, 0x00	; 0
    2332:	e3 d8       	rcall	.-3642   	; 0x14fa <waitTime>
                MAX7219_MatrixInit();
    2334:	0e 94 99 03 	call	0x732	; 0x732 <MAX7219_MatrixInit>
                MAX7219_MatrixUpdate();
    2338:	0e 94 ea 05 	call	0xbd4	; 0xbd4 <MAX7219_MatrixUpdate>
            }
            unsigned int j = 1;
    233c:	81 e0       	ldi	r24, 0x01	; 1
    233e:	90 e0       	ldi	r25, 0x00	; 0
    2340:	9e 83       	std	Y+6, r25	; 0x06
    2342:	8d 83       	std	Y+5, r24	; 0x05
            for (int i = 1; i <= test02[sequence]*1.75; i++)
    2344:	81 e0       	ldi	r24, 0x01	; 1
    2346:	90 e0       	ldi	r25, 0x00	; 0
    2348:	98 87       	std	Y+8, r25	; 0x08
    234a:	8f 83       	std	Y+7, r24	; 0x07
    234c:	bd c0       	rjmp	.+378    	; 0x24c8 <Tick1+0x404>
            {
                while (!TimerFlag){}
    234e:	00 00       	nop
    2350:	80 91 86 01 	lds	r24, 0x0186	; 0x800186 <__data_end>
    2354:	88 23       	and	r24, r24
    2356:	e1 f3       	breq	.-8      	; 0x2350 <Tick1+0x28c>
                TimerFlag = 0;
    2358:	10 92 86 01 	sts	0x0186, r1	; 0x800186 <__data_end>
                
                if (i == 1)
    235c:	8f 81       	ldd	r24, Y+7	; 0x07
    235e:	98 85       	ldd	r25, Y+8	; 0x08
    2360:	01 97       	sbiw	r24, 0x01	; 1
    2362:	09 f0       	breq	.+2      	; 0x2366 <Tick1+0x2a2>
                {
                    MAX7219_MatrixSetRow64(3,trans(test01[sequence]));
    2364:	66 c0       	rjmp	.+204    	; 0x2432 <Tick1+0x36e>
    2366:	80 91 8b 01 	lds	r24, 0x018B	; 0x80018b <sequence>
    236a:	88 2f       	mov	r24, r24
    236c:	90 e0       	ldi	r25, 0x00	; 0
    236e:	8a 5f       	subi	r24, 0xFA	; 250
    2370:	9e 4f       	sbci	r25, 0xFE	; 254
    2372:	fc 01       	movw	r30, r24
    2374:	80 81       	ld	r24, Z
    2376:	e7 d8       	rcall	.-3634   	; 0x1546 <trans>
    2378:	82 2e       	mov	r8, r18
    237a:	93 2e       	mov	r9, r19
    237c:	a4 2e       	mov	r10, r20
    237e:	b5 2e       	mov	r11, r21
    2380:	c6 2e       	mov	r12, r22
    2382:	d7 2e       	mov	r13, r23
    2384:	e8 2e       	mov	r14, r24
    2386:	f9 2e       	mov	r15, r25
    2388:	08 2d       	mov	r16, r8
    238a:	19 2d       	mov	r17, r9
    238c:	2a 2d       	mov	r18, r10
    238e:	3b 2d       	mov	r19, r11
    2390:	4c 2d       	mov	r20, r12
    2392:	5d 2d       	mov	r21, r13
    2394:	6e 2d       	mov	r22, r14
    2396:	7f 2d       	mov	r23, r15
    2398:	83 e0       	ldi	r24, 0x03	; 3
    239a:	0e 94 f0 03 	call	0x7e0	; 0x7e0 <MAX7219_MatrixSetRow64>
                    //MAX7219_MatrixSetRow64(2,test[1]);
                    if(sequence<31){MAX7219_MatrixSetRow64(0,trans(test01[sequence+1]));}
    239e:	80 91 8b 01 	lds	r24, 0x018B	; 0x80018b <sequence>
    23a2:	8f 31       	cpi	r24, 0x1F	; 31
    23a4:	f0 f4       	brcc	.+60     	; 0x23e2 <Tick1+0x31e>
    23a6:	80 91 8b 01 	lds	r24, 0x018B	; 0x80018b <sequence>
    23aa:	88 2f       	mov	r24, r24
    23ac:	90 e0       	ldi	r25, 0x00	; 0
    23ae:	01 96       	adiw	r24, 0x01	; 1
    23b0:	8a 5f       	subi	r24, 0xFA	; 250
    23b2:	9e 4f       	sbci	r25, 0xFE	; 254
    23b4:	fc 01       	movw	r30, r24
    23b6:	80 81       	ld	r24, Z
    23b8:	c6 d8       	rcall	.-3700   	; 0x1546 <trans>
    23ba:	82 2e       	mov	r8, r18
    23bc:	93 2e       	mov	r9, r19
    23be:	a4 2e       	mov	r10, r20
    23c0:	b5 2e       	mov	r11, r21
    23c2:	c6 2e       	mov	r12, r22
    23c4:	d7 2e       	mov	r13, r23
    23c6:	e8 2e       	mov	r14, r24
    23c8:	f9 2e       	mov	r15, r25
    23ca:	08 2d       	mov	r16, r8
    23cc:	19 2d       	mov	r17, r9
    23ce:	2a 2d       	mov	r18, r10
    23d0:	3b 2d       	mov	r19, r11
    23d2:	4c 2d       	mov	r20, r12
    23d4:	5d 2d       	mov	r21, r13
    23d6:	6e 2d       	mov	r22, r14
    23d8:	7f 2d       	mov	r23, r15
    23da:	80 e0       	ldi	r24, 0x00	; 0
    23dc:	0e 94 f0 03 	call	0x7e0	; 0x7e0 <MAX7219_MatrixSetRow64>
    23e0:	26 c0       	rjmp	.+76     	; 0x242e <Tick1+0x36a>
                    else{MAX7219_MatrixSetRow64(0,symbol[2]);}
    23e2:	81 2c       	mov	r8, r1
    23e4:	0f 2e       	mov	r0, r31
    23e6:	f8 e1       	ldi	r31, 0x18	; 24
    23e8:	9f 2e       	mov	r9, r31
    23ea:	f0 2d       	mov	r31, r0
    23ec:	0f 2e       	mov	r0, r31
    23ee:	f8 e2       	ldi	r31, 0x28	; 40
    23f0:	af 2e       	mov	r10, r31
    23f2:	f0 2d       	mov	r31, r0
    23f4:	68 94       	set
    23f6:	bb 24       	eor	r11, r11
    23f8:	b3 f8       	bld	r11, 3
    23fa:	68 94       	set
    23fc:	cc 24       	eor	r12, r12
    23fe:	c3 f8       	bld	r12, 3
    2400:	0f 2e       	mov	r0, r31
    2402:	fc e0       	ldi	r31, 0x0C	; 12
    2404:	df 2e       	mov	r13, r31
    2406:	f0 2d       	mov	r31, r0
    2408:	0f 2e       	mov	r0, r31
    240a:	fe e0       	ldi	r31, 0x0E	; 14
    240c:	ef 2e       	mov	r14, r31
    240e:	f0 2d       	mov	r31, r0
    2410:	0f 2e       	mov	r0, r31
    2412:	f6 e0       	ldi	r31, 0x06	; 6
    2414:	ff 2e       	mov	r15, r31
    2416:	f0 2d       	mov	r31, r0
    2418:	08 2d       	mov	r16, r8
    241a:	19 2d       	mov	r17, r9
    241c:	2a 2d       	mov	r18, r10
    241e:	3b 2d       	mov	r19, r11
    2420:	4c 2d       	mov	r20, r12
    2422:	5d 2d       	mov	r21, r13
    2424:	6e 2d       	mov	r22, r14
    2426:	7f 2d       	mov	r23, r15
    2428:	80 e0       	ldi	r24, 0x00	; 0
    242a:	0e 94 f0 03 	call	0x7e0	; 0x7e0 <MAX7219_MatrixSetRow64>
                    MAX7219_MatrixUpdate();
    242e:	0e 94 ea 05 	call	0xbd4	; 0xbd4 <MAX7219_MatrixUpdate>
                }
                //MAX7219_MatrixRShift(32/test02[sequence]);
                if(GetKeypadKey()==test01[sequence])
    2432:	0e 94 e2 01 	call	0x3c4	; 0x3c4 <GetKeypadKey>
    2436:	28 2f       	mov	r18, r24
    2438:	80 91 8b 01 	lds	r24, 0x018B	; 0x80018b <sequence>
    243c:	88 2f       	mov	r24, r24
    243e:	90 e0       	ldi	r25, 0x00	; 0
    2440:	8a 5f       	subi	r24, 0xFA	; 250
    2442:	9e 4f       	sbci	r25, 0xFE	; 254
    2444:	fc 01       	movw	r30, r24
    2446:	80 81       	ld	r24, Z
    2448:	28 17       	cp	r18, r24
                {
                    scoreA = scoreA + 1;              
    244a:	49 f4       	brne	.+18     	; 0x245e <Tick1+0x39a>
    244c:	80 91 04 01 	lds	r24, 0x0104	; 0x800104 <scoreA>
    2450:	90 91 05 01 	lds	r25, 0x0105	; 0x800105 <scoreA+0x1>
    2454:	01 96       	adiw	r24, 0x01	; 1
    2456:	90 93 05 01 	sts	0x0105, r25	; 0x800105 <scoreA+0x1>
                }
                if (i % 10 ==0)
    245a:	80 93 04 01 	sts	0x0104, r24	; 0x800104 <scoreA>
    245e:	8f 81       	ldd	r24, Y+7	; 0x07
    2460:	98 85       	ldd	r25, Y+8	; 0x08
    2462:	2a e0       	ldi	r18, 0x0A	; 10
    2464:	30 e0       	ldi	r19, 0x00	; 0
    2466:	b9 01       	movw	r22, r18
    2468:	72 d2       	rcall	.+1252   	; 0x294e <__divmodhi4>
                {
                    set_bar_pos(j);
    246a:	89 2b       	or	r24, r25
    246c:	41 f4       	brne	.+16     	; 0x247e <Tick1+0x3ba>
    246e:	8d 81       	ldd	r24, Y+5	; 0x05
    2470:	9e 81       	ldd	r25, Y+6	; 0x06
                    j++;
    2472:	8e d9       	rcall	.-3300   	; 0x1790 <set_bar_pos>
    2474:	8d 81       	ldd	r24, Y+5	; 0x05
    2476:	9e 81       	ldd	r25, Y+6	; 0x06
    2478:	01 96       	adiw	r24, 0x01	; 1
                }
                if (i%5 == 0)
    247a:	9e 83       	std	Y+6, r25	; 0x06
    247c:	8d 83       	std	Y+5, r24	; 0x05
    247e:	8f 81       	ldd	r24, Y+7	; 0x07
    2480:	98 85       	ldd	r25, Y+8	; 0x08
    2482:	25 e0       	ldi	r18, 0x05	; 5
    2484:	30 e0       	ldi	r19, 0x00	; 0
    2486:	b9 01       	movw	r22, r18
    2488:	62 d2       	rcall	.+1220   	; 0x294e <__divmodhi4>
    248a:	89 2b       	or	r24, r25
                {
                    MAX7219_MatrixUpdate();
    248c:	11 f4       	brne	.+4      	; 0x2492 <Tick1+0x3ce>
                }
                if (i %20 == 0){
    248e:	0e 94 ea 05 	call	0xbd4	; 0xbd4 <MAX7219_MatrixUpdate>
    2492:	8f 81       	ldd	r24, Y+7	; 0x07
    2494:	98 85       	ldd	r25, Y+8	; 0x08
    2496:	24 e1       	ldi	r18, 0x14	; 20
    2498:	30 e0       	ldi	r19, 0x00	; 0
    249a:	b9 01       	movw	r22, r18
    249c:	58 d2       	rcall	.+1200   	; 0x294e <__divmodhi4>
    249e:	89 2b       	or	r24, r25
                    itoa(scoreA, intStr, 10);
    24a0:	71 f4       	brne	.+28     	; 0x24be <Tick1+0x3fa>
    24a2:	80 91 04 01 	lds	r24, 0x0104	; 0x800104 <scoreA>
    24a6:	90 91 05 01 	lds	r25, 0x0105	; 0x800105 <scoreA+0x1>
    24aa:	4a e0       	ldi	r20, 0x0A	; 10
    24ac:	50 e0       	ldi	r21, 0x00	; 0
    24ae:	62 eb       	ldi	r22, 0xB2	; 178
    24b0:	71 e0       	ldi	r23, 0x01	; 1
                    LCD_DisplayString(1, intStr);
    24b2:	9b d2       	rcall	.+1334   	; 0x29ea <itoa>
    24b4:	62 eb       	ldi	r22, 0xB2	; 178
    24b6:	71 e0       	ldi	r23, 0x01	; 1
    24b8:	81 e0       	ldi	r24, 0x01	; 1
    24ba:	0e 94 2c 01 	call	0x258	; 0x258 <LCD_DisplayString>
                waitTime(100);
                MAX7219_MatrixInit();
                MAX7219_MatrixUpdate();
            }
            unsigned int j = 1;
            for (int i = 1; i <= test02[sequence]*1.75; i++)
    24be:	8f 81       	ldd	r24, Y+7	; 0x07
    24c0:	98 85       	ldd	r25, Y+8	; 0x08
    24c2:	01 96       	adiw	r24, 0x01	; 1
    24c4:	98 87       	std	Y+8, r25	; 0x08
    24c6:	8f 83       	std	Y+7, r24	; 0x07
    24c8:	8f 81       	ldd	r24, Y+7	; 0x07
    24ca:	98 85       	ldd	r25, Y+8	; 0x08
    24cc:	09 2e       	mov	r0, r25
    24ce:	00 0c       	add	r0, r0
    24d0:	aa 0b       	sbc	r26, r26
    24d2:	bb 0b       	sbc	r27, r27
    24d4:	bc 01       	movw	r22, r24
    24d6:	cd 01       	movw	r24, r26
    24d8:	23 d1       	rcall	.+582    	; 0x2720 <__floatsisf>
    24da:	6b 01       	movw	r12, r22
    24dc:	7c 01       	movw	r14, r24
    24de:	80 91 8b 01 	lds	r24, 0x018B	; 0x80018b <sequence>
    24e2:	88 2f       	mov	r24, r24
    24e4:	90 e0       	ldi	r25, 0x00	; 0
    24e6:	88 0f       	add	r24, r24
    24e8:	99 1f       	adc	r25, r25
    24ea:	8a 5d       	subi	r24, 0xDA	; 218
    24ec:	9e 4f       	sbci	r25, 0xFE	; 254
    24ee:	fc 01       	movw	r30, r24
    24f0:	80 81       	ld	r24, Z
    24f2:	91 81       	ldd	r25, Z+1	; 0x01
    24f4:	cc 01       	movw	r24, r24
    24f6:	a0 e0       	ldi	r26, 0x00	; 0
    24f8:	b0 e0       	ldi	r27, 0x00	; 0
    24fa:	bc 01       	movw	r22, r24
    24fc:	cd 01       	movw	r24, r26
    24fe:	0e d1       	rcall	.+540    	; 0x271c <__floatunsisf>
    2500:	dc 01       	movw	r26, r24
    2502:	cb 01       	movw	r24, r22
    2504:	20 e0       	ldi	r18, 0x00	; 0
    2506:	30 e0       	ldi	r19, 0x00	; 0
    2508:	40 ee       	ldi	r20, 0xE0	; 224
    250a:	5f e3       	ldi	r21, 0x3F	; 63
    250c:	bc 01       	movw	r22, r24
    250e:	cd 01       	movw	r24, r26
    2510:	bb d1       	rcall	.+886    	; 0x2888 <__mulsf3>
    2512:	dc 01       	movw	r26, r24
    2514:	cb 01       	movw	r24, r22
    2516:	9c 01       	movw	r18, r24
    2518:	ad 01       	movw	r20, r26
    251a:	c7 01       	movw	r24, r14
    251c:	b6 01       	movw	r22, r12
    251e:	61 d0       	rcall	.+194    	; 0x25e2 <__cmpsf2>
    2520:	18 16       	cp	r1, r24
    2522:	0c f0       	brlt	.+2      	; 0x2526 <Tick1+0x462>
    2524:	14 cf       	rjmp	.-472    	; 0x234e <Tick1+0x28a>
                    itoa(scoreA, intStr, 10);
                    LCD_DisplayString(1, intStr);
                }                
            }
            
            sequence++;
    2526:	80 91 8b 01 	lds	r24, 0x018B	; 0x80018b <sequence>
    252a:	8f 5f       	subi	r24, 0xFF	; 255
    252c:	80 93 8b 01 	sts	0x018B, r24	; 0x80018b <sequence>
        break;
    2530:	03 c0       	rjmp	.+6      	; 0x2538 <Tick1+0x474>
        default: menuFlag = 0; break;
    2532:	10 92 8c 01 	sts	0x018C, r1	; 0x80018c <menuFlag>
    2536:	00 00       	nop
    }

	

}
    2538:	00 00       	nop
    253a:	28 96       	adiw	r28, 0x08	; 8
    253c:	0f b6       	in	r0, 0x3f	; 63
    253e:	f8 94       	cli
    2540:	de bf       	out	0x3e, r29	; 62
    2542:	0f be       	out	0x3f, r0	; 63
    2544:	cd bf       	out	0x3d, r28	; 61
    2546:	df 91       	pop	r29
    2548:	cf 91       	pop	r28
    254a:	1f 91       	pop	r17
    254c:	0f 91       	pop	r16
    254e:	ff 90       	pop	r15
    2550:	ef 90       	pop	r14
    2552:	df 90       	pop	r13
    2554:	cf 90       	pop	r12
    2556:	bf 90       	pop	r11
    2558:	af 90       	pop	r10
    255a:	9f 90       	pop	r9
    255c:	8f 90       	pop	r8
    255e:	08 95       	ret

00002560 <main>:



int main(void)
{
    2560:	cf 93       	push	r28
    2562:	df 93       	push	r29
    2564:	cd b7       	in	r28, 0x3d	; 61
    2566:	de b7       	in	r29, 0x3e	; 62
	DDRC = 0xFF; PORTC = 0x00; // LCD data lines
    2568:	87 e2       	ldi	r24, 0x27	; 39
    256a:	90 e0       	ldi	r25, 0x00	; 0
    256c:	2f ef       	ldi	r18, 0xFF	; 255
    256e:	fc 01       	movw	r30, r24
    2570:	20 83       	st	Z, r18
    2572:	88 e2       	ldi	r24, 0x28	; 40
    2574:	90 e0       	ldi	r25, 0x00	; 0
    2576:	fc 01       	movw	r30, r24
    2578:	10 82       	st	Z, r1
	DDRD = 0xFF; PORTD = 0x00; // LCD control lines
    257a:	8a e2       	ldi	r24, 0x2A	; 42
    257c:	90 e0       	ldi	r25, 0x00	; 0
    257e:	2f ef       	ldi	r18, 0xFF	; 255
    2580:	fc 01       	movw	r30, r24
    2582:	20 83       	st	Z, r18
    2584:	8b e2       	ldi	r24, 0x2B	; 43
    2586:	90 e0       	ldi	r25, 0x00	; 0
    2588:	fc 01       	movw	r30, r24
    258a:	10 82       	st	Z, r1
    DDRA = 0xF0; PORTA = 0x0F; //KEYPAD!!!!
    258c:	81 e2       	ldi	r24, 0x21	; 33
    258e:	90 e0       	ldi	r25, 0x00	; 0
    2590:	20 ef       	ldi	r18, 0xF0	; 240
    2592:	fc 01       	movw	r30, r24
    2594:	20 83       	st	Z, r18
    2596:	82 e2       	ldi	r24, 0x22	; 34
    2598:	90 e0       	ldi	r25, 0x00	; 0
    259a:	2f e0       	ldi	r18, 0x0F	; 15
    259c:	fc 01       	movw	r30, r24
    259e:	20 83       	st	Z, r18
    DDRB = 0xFF; PORTB = 0x00;//PWM
    25a0:	84 e2       	ldi	r24, 0x24	; 36
    25a2:	90 e0       	ldi	r25, 0x00	; 0
    25a4:	2f ef       	ldi	r18, 0xFF	; 255
    25a6:	fc 01       	movw	r30, r24
    25a8:	20 83       	st	Z, r18
    25aa:	85 e2       	ldi	r24, 0x25	; 37
    25ac:	90 e0       	ldi	r25, 0x00	; 0
    25ae:	fc 01       	movw	r30, r24
    25b0:	10 82       	st	Z, r1
    LCD_init();
    25b2:	0e 94 bd 00 	call	0x17a	; 0x17a <LCD_init>
    MAX7219_MatrixInit();
    25b6:	0e 94 99 03 	call	0x732	; 0x732 <MAX7219_MatrixInit>
    MAX7219_MatrixUpdate();
    25ba:	0e 94 ea 05 	call	0xbd4	; 0xbd4 <MAX7219_MatrixUpdate>
	TimerSet(5);
    25be:	65 e0       	ldi	r22, 0x05	; 5
    25c0:	70 e0       	ldi	r23, 0x00	; 0
    25c2:	80 e0       	ldi	r24, 0x00	; 0
    25c4:	90 e0       	ldi	r25, 0x00	; 0
    25c6:	0e 94 c2 02 	call	0x584	; 0x584 <TimerSet>
	TimerOn();
    25ca:	0e 94 f0 02 	call	0x5e0	; 0x5e0 <TimerOn>
	mainState = Start;
    25ce:	10 92 bc 01 	sts	0x01BC, r1	; 0x8001bc <mainState>
    PWM_on();
    25d2:	0e 94 70 08 	call	0x10e0	; 0x10e0 <PWM_on>

	while(1){

		key = GetKeypadKey();
    25d6:	0e 94 e2 01 	call	0x3c4	; 0x3c4 <GetKeypadKey>
    25da:	80 93 8d 01 	sts	0x018D, r24	; 0x80018d <key>
		Tick1();
    25de:	72 dd       	rcall	.-1308   	; 0x20c4 <Tick1>
		
	}
    25e0:	fa cf       	rjmp	.-12     	; 0x25d6 <main+0x76>

000025e2 <__cmpsf2>:
    25e2:	d9 d0       	rcall	.+434    	; 0x2796 <__fp_cmp>
    25e4:	08 f4       	brcc	.+2      	; 0x25e8 <__cmpsf2+0x6>
    25e6:	81 e0       	ldi	r24, 0x01	; 1
    25e8:	08 95       	ret

000025ea <__divsf3>:
    25ea:	0c d0       	rcall	.+24     	; 0x2604 <__divsf3x>
    25ec:	0f c1       	rjmp	.+542    	; 0x280c <__fp_round>
    25ee:	07 d1       	rcall	.+526    	; 0x27fe <__fp_pscB>
    25f0:	40 f0       	brcs	.+16     	; 0x2602 <__divsf3+0x18>
    25f2:	fe d0       	rcall	.+508    	; 0x27f0 <__fp_pscA>
    25f4:	30 f0       	brcs	.+12     	; 0x2602 <__divsf3+0x18>
    25f6:	21 f4       	brne	.+8      	; 0x2600 <__divsf3+0x16>
    25f8:	5f 3f       	cpi	r21, 0xFF	; 255
    25fa:	19 f0       	breq	.+6      	; 0x2602 <__divsf3+0x18>
    25fc:	f0 c0       	rjmp	.+480    	; 0x27de <__fp_inf>
    25fe:	51 11       	cpse	r21, r1
    2600:	39 c1       	rjmp	.+626    	; 0x2874 <__fp_szero>
    2602:	f3 c0       	rjmp	.+486    	; 0x27ea <__fp_nan>

00002604 <__divsf3x>:
    2604:	14 d1       	rcall	.+552    	; 0x282e <__fp_split3>
    2606:	98 f3       	brcs	.-26     	; 0x25ee <__divsf3+0x4>

00002608 <__divsf3_pse>:
    2608:	99 23       	and	r25, r25
    260a:	c9 f3       	breq	.-14     	; 0x25fe <__divsf3+0x14>
    260c:	55 23       	and	r21, r21
    260e:	b1 f3       	breq	.-20     	; 0x25fc <__divsf3+0x12>
    2610:	95 1b       	sub	r25, r21
    2612:	55 0b       	sbc	r21, r21
    2614:	bb 27       	eor	r27, r27
    2616:	aa 27       	eor	r26, r26
    2618:	62 17       	cp	r22, r18
    261a:	73 07       	cpc	r23, r19
    261c:	84 07       	cpc	r24, r20
    261e:	38 f0       	brcs	.+14     	; 0x262e <__divsf3_pse+0x26>
    2620:	9f 5f       	subi	r25, 0xFF	; 255
    2622:	5f 4f       	sbci	r21, 0xFF	; 255
    2624:	22 0f       	add	r18, r18
    2626:	33 1f       	adc	r19, r19
    2628:	44 1f       	adc	r20, r20
    262a:	aa 1f       	adc	r26, r26
    262c:	a9 f3       	breq	.-22     	; 0x2618 <__divsf3_pse+0x10>
    262e:	33 d0       	rcall	.+102    	; 0x2696 <__divsf3_pse+0x8e>
    2630:	0e 2e       	mov	r0, r30
    2632:	3a f0       	brmi	.+14     	; 0x2642 <__divsf3_pse+0x3a>
    2634:	e0 e8       	ldi	r30, 0x80	; 128
    2636:	30 d0       	rcall	.+96     	; 0x2698 <__divsf3_pse+0x90>
    2638:	91 50       	subi	r25, 0x01	; 1
    263a:	50 40       	sbci	r21, 0x00	; 0
    263c:	e6 95       	lsr	r30
    263e:	00 1c       	adc	r0, r0
    2640:	ca f7       	brpl	.-14     	; 0x2634 <__divsf3_pse+0x2c>
    2642:	29 d0       	rcall	.+82     	; 0x2696 <__divsf3_pse+0x8e>
    2644:	fe 2f       	mov	r31, r30
    2646:	27 d0       	rcall	.+78     	; 0x2696 <__divsf3_pse+0x8e>
    2648:	66 0f       	add	r22, r22
    264a:	77 1f       	adc	r23, r23
    264c:	88 1f       	adc	r24, r24
    264e:	bb 1f       	adc	r27, r27
    2650:	26 17       	cp	r18, r22
    2652:	37 07       	cpc	r19, r23
    2654:	48 07       	cpc	r20, r24
    2656:	ab 07       	cpc	r26, r27
    2658:	b0 e8       	ldi	r27, 0x80	; 128
    265a:	09 f0       	breq	.+2      	; 0x265e <__divsf3_pse+0x56>
    265c:	bb 0b       	sbc	r27, r27
    265e:	80 2d       	mov	r24, r0
    2660:	bf 01       	movw	r22, r30
    2662:	ff 27       	eor	r31, r31
    2664:	93 58       	subi	r25, 0x83	; 131
    2666:	5f 4f       	sbci	r21, 0xFF	; 255
    2668:	2a f0       	brmi	.+10     	; 0x2674 <__divsf3_pse+0x6c>
    266a:	9e 3f       	cpi	r25, 0xFE	; 254
    266c:	51 05       	cpc	r21, r1
    266e:	68 f0       	brcs	.+26     	; 0x268a <__divsf3_pse+0x82>
    2670:	b6 c0       	rjmp	.+364    	; 0x27de <__fp_inf>
    2672:	00 c1       	rjmp	.+512    	; 0x2874 <__fp_szero>
    2674:	5f 3f       	cpi	r21, 0xFF	; 255
    2676:	ec f3       	brlt	.-6      	; 0x2672 <__divsf3_pse+0x6a>
    2678:	98 3e       	cpi	r25, 0xE8	; 232
    267a:	dc f3       	brlt	.-10     	; 0x2672 <__divsf3_pse+0x6a>
    267c:	86 95       	lsr	r24
    267e:	77 95       	ror	r23
    2680:	67 95       	ror	r22
    2682:	b7 95       	ror	r27
    2684:	f7 95       	ror	r31
    2686:	9f 5f       	subi	r25, 0xFF	; 255
    2688:	c9 f7       	brne	.-14     	; 0x267c <__divsf3_pse+0x74>
    268a:	88 0f       	add	r24, r24
    268c:	91 1d       	adc	r25, r1
    268e:	96 95       	lsr	r25
    2690:	87 95       	ror	r24
    2692:	97 f9       	bld	r25, 7
    2694:	08 95       	ret
    2696:	e1 e0       	ldi	r30, 0x01	; 1
    2698:	66 0f       	add	r22, r22
    269a:	77 1f       	adc	r23, r23
    269c:	88 1f       	adc	r24, r24
    269e:	bb 1f       	adc	r27, r27
    26a0:	62 17       	cp	r22, r18
    26a2:	73 07       	cpc	r23, r19
    26a4:	84 07       	cpc	r24, r20
    26a6:	ba 07       	cpc	r27, r26
    26a8:	20 f0       	brcs	.+8      	; 0x26b2 <__divsf3_pse+0xaa>
    26aa:	62 1b       	sub	r22, r18
    26ac:	73 0b       	sbc	r23, r19
    26ae:	84 0b       	sbc	r24, r20
    26b0:	ba 0b       	sbc	r27, r26
    26b2:	ee 1f       	adc	r30, r30
    26b4:	88 f7       	brcc	.-30     	; 0x2698 <__divsf3_pse+0x90>
    26b6:	e0 95       	com	r30
    26b8:	08 95       	ret

000026ba <__fixsfsi>:
    26ba:	04 d0       	rcall	.+8      	; 0x26c4 <__fixunssfsi>
    26bc:	68 94       	set
    26be:	b1 11       	cpse	r27, r1
    26c0:	d9 c0       	rjmp	.+434    	; 0x2874 <__fp_szero>
    26c2:	08 95       	ret

000026c4 <__fixunssfsi>:
    26c4:	bc d0       	rcall	.+376    	; 0x283e <__fp_splitA>
    26c6:	88 f0       	brcs	.+34     	; 0x26ea <__fixunssfsi+0x26>
    26c8:	9f 57       	subi	r25, 0x7F	; 127
    26ca:	90 f0       	brcs	.+36     	; 0x26f0 <__fixunssfsi+0x2c>
    26cc:	b9 2f       	mov	r27, r25
    26ce:	99 27       	eor	r25, r25
    26d0:	b7 51       	subi	r27, 0x17	; 23
    26d2:	a0 f0       	brcs	.+40     	; 0x26fc <__fixunssfsi+0x38>
    26d4:	d1 f0       	breq	.+52     	; 0x270a <__fixunssfsi+0x46>
    26d6:	66 0f       	add	r22, r22
    26d8:	77 1f       	adc	r23, r23
    26da:	88 1f       	adc	r24, r24
    26dc:	99 1f       	adc	r25, r25
    26de:	1a f0       	brmi	.+6      	; 0x26e6 <__fixunssfsi+0x22>
    26e0:	ba 95       	dec	r27
    26e2:	c9 f7       	brne	.-14     	; 0x26d6 <__fixunssfsi+0x12>
    26e4:	12 c0       	rjmp	.+36     	; 0x270a <__fixunssfsi+0x46>
    26e6:	b1 30       	cpi	r27, 0x01	; 1
    26e8:	81 f0       	breq	.+32     	; 0x270a <__fixunssfsi+0x46>
    26ea:	c3 d0       	rcall	.+390    	; 0x2872 <__fp_zero>
    26ec:	b1 e0       	ldi	r27, 0x01	; 1
    26ee:	08 95       	ret
    26f0:	c0 c0       	rjmp	.+384    	; 0x2872 <__fp_zero>
    26f2:	67 2f       	mov	r22, r23
    26f4:	78 2f       	mov	r23, r24
    26f6:	88 27       	eor	r24, r24
    26f8:	b8 5f       	subi	r27, 0xF8	; 248
    26fa:	39 f0       	breq	.+14     	; 0x270a <__fixunssfsi+0x46>
    26fc:	b9 3f       	cpi	r27, 0xF9	; 249
    26fe:	cc f3       	brlt	.-14     	; 0x26f2 <__fixunssfsi+0x2e>
    2700:	86 95       	lsr	r24
    2702:	77 95       	ror	r23
    2704:	67 95       	ror	r22
    2706:	b3 95       	inc	r27
    2708:	d9 f7       	brne	.-10     	; 0x2700 <__fixunssfsi+0x3c>
    270a:	3e f4       	brtc	.+14     	; 0x271a <__fixunssfsi+0x56>
    270c:	90 95       	com	r25
    270e:	80 95       	com	r24
    2710:	70 95       	com	r23
    2712:	61 95       	neg	r22
    2714:	7f 4f       	sbci	r23, 0xFF	; 255
    2716:	8f 4f       	sbci	r24, 0xFF	; 255
    2718:	9f 4f       	sbci	r25, 0xFF	; 255
    271a:	08 95       	ret

0000271c <__floatunsisf>:
    271c:	e8 94       	clt
    271e:	09 c0       	rjmp	.+18     	; 0x2732 <__floatsisf+0x12>

00002720 <__floatsisf>:
    2720:	97 fb       	bst	r25, 7
    2722:	3e f4       	brtc	.+14     	; 0x2732 <__floatsisf+0x12>
    2724:	90 95       	com	r25
    2726:	80 95       	com	r24
    2728:	70 95       	com	r23
    272a:	61 95       	neg	r22
    272c:	7f 4f       	sbci	r23, 0xFF	; 255
    272e:	8f 4f       	sbci	r24, 0xFF	; 255
    2730:	9f 4f       	sbci	r25, 0xFF	; 255
    2732:	99 23       	and	r25, r25
    2734:	a9 f0       	breq	.+42     	; 0x2760 <__floatsisf+0x40>
    2736:	f9 2f       	mov	r31, r25
    2738:	96 e9       	ldi	r25, 0x96	; 150
    273a:	bb 27       	eor	r27, r27
    273c:	93 95       	inc	r25
    273e:	f6 95       	lsr	r31
    2740:	87 95       	ror	r24
    2742:	77 95       	ror	r23
    2744:	67 95       	ror	r22
    2746:	b7 95       	ror	r27
    2748:	f1 11       	cpse	r31, r1
    274a:	f8 cf       	rjmp	.-16     	; 0x273c <__floatsisf+0x1c>
    274c:	fa f4       	brpl	.+62     	; 0x278c <__floatsisf+0x6c>
    274e:	bb 0f       	add	r27, r27
    2750:	11 f4       	brne	.+4      	; 0x2756 <__floatsisf+0x36>
    2752:	60 ff       	sbrs	r22, 0
    2754:	1b c0       	rjmp	.+54     	; 0x278c <__floatsisf+0x6c>
    2756:	6f 5f       	subi	r22, 0xFF	; 255
    2758:	7f 4f       	sbci	r23, 0xFF	; 255
    275a:	8f 4f       	sbci	r24, 0xFF	; 255
    275c:	9f 4f       	sbci	r25, 0xFF	; 255
    275e:	16 c0       	rjmp	.+44     	; 0x278c <__floatsisf+0x6c>
    2760:	88 23       	and	r24, r24
    2762:	11 f0       	breq	.+4      	; 0x2768 <__floatsisf+0x48>
    2764:	96 e9       	ldi	r25, 0x96	; 150
    2766:	11 c0       	rjmp	.+34     	; 0x278a <__floatsisf+0x6a>
    2768:	77 23       	and	r23, r23
    276a:	21 f0       	breq	.+8      	; 0x2774 <__floatsisf+0x54>
    276c:	9e e8       	ldi	r25, 0x8E	; 142
    276e:	87 2f       	mov	r24, r23
    2770:	76 2f       	mov	r23, r22
    2772:	05 c0       	rjmp	.+10     	; 0x277e <__floatsisf+0x5e>
    2774:	66 23       	and	r22, r22
    2776:	71 f0       	breq	.+28     	; 0x2794 <__floatsisf+0x74>
    2778:	96 e8       	ldi	r25, 0x86	; 134
    277a:	86 2f       	mov	r24, r22
    277c:	70 e0       	ldi	r23, 0x00	; 0
    277e:	60 e0       	ldi	r22, 0x00	; 0
    2780:	2a f0       	brmi	.+10     	; 0x278c <__floatsisf+0x6c>
    2782:	9a 95       	dec	r25
    2784:	66 0f       	add	r22, r22
    2786:	77 1f       	adc	r23, r23
    2788:	88 1f       	adc	r24, r24
    278a:	da f7       	brpl	.-10     	; 0x2782 <__floatsisf+0x62>
    278c:	88 0f       	add	r24, r24
    278e:	96 95       	lsr	r25
    2790:	87 95       	ror	r24
    2792:	97 f9       	bld	r25, 7
    2794:	08 95       	ret

00002796 <__fp_cmp>:
    2796:	99 0f       	add	r25, r25
    2798:	00 08       	sbc	r0, r0
    279a:	55 0f       	add	r21, r21
    279c:	aa 0b       	sbc	r26, r26
    279e:	e0 e8       	ldi	r30, 0x80	; 128
    27a0:	fe ef       	ldi	r31, 0xFE	; 254
    27a2:	16 16       	cp	r1, r22
    27a4:	17 06       	cpc	r1, r23
    27a6:	e8 07       	cpc	r30, r24
    27a8:	f9 07       	cpc	r31, r25
    27aa:	c0 f0       	brcs	.+48     	; 0x27dc <__fp_cmp+0x46>
    27ac:	12 16       	cp	r1, r18
    27ae:	13 06       	cpc	r1, r19
    27b0:	e4 07       	cpc	r30, r20
    27b2:	f5 07       	cpc	r31, r21
    27b4:	98 f0       	brcs	.+38     	; 0x27dc <__fp_cmp+0x46>
    27b6:	62 1b       	sub	r22, r18
    27b8:	73 0b       	sbc	r23, r19
    27ba:	84 0b       	sbc	r24, r20
    27bc:	95 0b       	sbc	r25, r21
    27be:	39 f4       	brne	.+14     	; 0x27ce <__fp_cmp+0x38>
    27c0:	0a 26       	eor	r0, r26
    27c2:	61 f0       	breq	.+24     	; 0x27dc <__fp_cmp+0x46>
    27c4:	23 2b       	or	r18, r19
    27c6:	24 2b       	or	r18, r20
    27c8:	25 2b       	or	r18, r21
    27ca:	21 f4       	brne	.+8      	; 0x27d4 <__fp_cmp+0x3e>
    27cc:	08 95       	ret
    27ce:	0a 26       	eor	r0, r26
    27d0:	09 f4       	brne	.+2      	; 0x27d4 <__fp_cmp+0x3e>
    27d2:	a1 40       	sbci	r26, 0x01	; 1
    27d4:	a6 95       	lsr	r26
    27d6:	8f ef       	ldi	r24, 0xFF	; 255
    27d8:	81 1d       	adc	r24, r1
    27da:	81 1d       	adc	r24, r1
    27dc:	08 95       	ret

000027de <__fp_inf>:
    27de:	97 f9       	bld	r25, 7
    27e0:	9f 67       	ori	r25, 0x7F	; 127
    27e2:	80 e8       	ldi	r24, 0x80	; 128
    27e4:	70 e0       	ldi	r23, 0x00	; 0
    27e6:	60 e0       	ldi	r22, 0x00	; 0
    27e8:	08 95       	ret

000027ea <__fp_nan>:
    27ea:	9f ef       	ldi	r25, 0xFF	; 255
    27ec:	80 ec       	ldi	r24, 0xC0	; 192
    27ee:	08 95       	ret

000027f0 <__fp_pscA>:
    27f0:	00 24       	eor	r0, r0
    27f2:	0a 94       	dec	r0
    27f4:	16 16       	cp	r1, r22
    27f6:	17 06       	cpc	r1, r23
    27f8:	18 06       	cpc	r1, r24
    27fa:	09 06       	cpc	r0, r25
    27fc:	08 95       	ret

000027fe <__fp_pscB>:
    27fe:	00 24       	eor	r0, r0
    2800:	0a 94       	dec	r0
    2802:	12 16       	cp	r1, r18
    2804:	13 06       	cpc	r1, r19
    2806:	14 06       	cpc	r1, r20
    2808:	05 06       	cpc	r0, r21
    280a:	08 95       	ret

0000280c <__fp_round>:
    280c:	09 2e       	mov	r0, r25
    280e:	03 94       	inc	r0
    2810:	00 0c       	add	r0, r0
    2812:	11 f4       	brne	.+4      	; 0x2818 <__fp_round+0xc>
    2814:	88 23       	and	r24, r24
    2816:	52 f0       	brmi	.+20     	; 0x282c <__fp_round+0x20>
    2818:	bb 0f       	add	r27, r27
    281a:	40 f4       	brcc	.+16     	; 0x282c <__fp_round+0x20>
    281c:	bf 2b       	or	r27, r31
    281e:	11 f4       	brne	.+4      	; 0x2824 <__fp_round+0x18>
    2820:	60 ff       	sbrs	r22, 0
    2822:	04 c0       	rjmp	.+8      	; 0x282c <__fp_round+0x20>
    2824:	6f 5f       	subi	r22, 0xFF	; 255
    2826:	7f 4f       	sbci	r23, 0xFF	; 255
    2828:	8f 4f       	sbci	r24, 0xFF	; 255
    282a:	9f 4f       	sbci	r25, 0xFF	; 255
    282c:	08 95       	ret

0000282e <__fp_split3>:
    282e:	57 fd       	sbrc	r21, 7
    2830:	90 58       	subi	r25, 0x80	; 128
    2832:	44 0f       	add	r20, r20
    2834:	55 1f       	adc	r21, r21
    2836:	59 f0       	breq	.+22     	; 0x284e <__fp_splitA+0x10>
    2838:	5f 3f       	cpi	r21, 0xFF	; 255
    283a:	71 f0       	breq	.+28     	; 0x2858 <__fp_splitA+0x1a>
    283c:	47 95       	ror	r20

0000283e <__fp_splitA>:
    283e:	88 0f       	add	r24, r24
    2840:	97 fb       	bst	r25, 7
    2842:	99 1f       	adc	r25, r25
    2844:	61 f0       	breq	.+24     	; 0x285e <__fp_splitA+0x20>
    2846:	9f 3f       	cpi	r25, 0xFF	; 255
    2848:	79 f0       	breq	.+30     	; 0x2868 <__fp_splitA+0x2a>
    284a:	87 95       	ror	r24
    284c:	08 95       	ret
    284e:	12 16       	cp	r1, r18
    2850:	13 06       	cpc	r1, r19
    2852:	14 06       	cpc	r1, r20
    2854:	55 1f       	adc	r21, r21
    2856:	f2 cf       	rjmp	.-28     	; 0x283c <__fp_split3+0xe>
    2858:	46 95       	lsr	r20
    285a:	f1 df       	rcall	.-30     	; 0x283e <__fp_splitA>
    285c:	08 c0       	rjmp	.+16     	; 0x286e <__fp_splitA+0x30>
    285e:	16 16       	cp	r1, r22
    2860:	17 06       	cpc	r1, r23
    2862:	18 06       	cpc	r1, r24
    2864:	99 1f       	adc	r25, r25
    2866:	f1 cf       	rjmp	.-30     	; 0x284a <__fp_splitA+0xc>
    2868:	86 95       	lsr	r24
    286a:	71 05       	cpc	r23, r1
    286c:	61 05       	cpc	r22, r1
    286e:	08 94       	sec
    2870:	08 95       	ret

00002872 <__fp_zero>:
    2872:	e8 94       	clt

00002874 <__fp_szero>:
    2874:	bb 27       	eor	r27, r27
    2876:	66 27       	eor	r22, r22
    2878:	77 27       	eor	r23, r23
    287a:	cb 01       	movw	r24, r22
    287c:	97 f9       	bld	r25, 7
    287e:	08 95       	ret

00002880 <__gesf2>:
    2880:	8a df       	rcall	.-236    	; 0x2796 <__fp_cmp>
    2882:	08 f4       	brcc	.+2      	; 0x2886 <__gesf2+0x6>
    2884:	8f ef       	ldi	r24, 0xFF	; 255
    2886:	08 95       	ret

00002888 <__mulsf3>:
    2888:	0b d0       	rcall	.+22     	; 0x28a0 <__mulsf3x>
    288a:	c0 cf       	rjmp	.-128    	; 0x280c <__fp_round>
    288c:	b1 df       	rcall	.-158    	; 0x27f0 <__fp_pscA>
    288e:	28 f0       	brcs	.+10     	; 0x289a <__mulsf3+0x12>
    2890:	b6 df       	rcall	.-148    	; 0x27fe <__fp_pscB>
    2892:	18 f0       	brcs	.+6      	; 0x289a <__mulsf3+0x12>
    2894:	95 23       	and	r25, r21
    2896:	09 f0       	breq	.+2      	; 0x289a <__mulsf3+0x12>
    2898:	a2 cf       	rjmp	.-188    	; 0x27de <__fp_inf>
    289a:	a7 cf       	rjmp	.-178    	; 0x27ea <__fp_nan>
    289c:	11 24       	eor	r1, r1
    289e:	ea cf       	rjmp	.-44     	; 0x2874 <__fp_szero>

000028a0 <__mulsf3x>:
    28a0:	c6 df       	rcall	.-116    	; 0x282e <__fp_split3>
    28a2:	a0 f3       	brcs	.-24     	; 0x288c <__mulsf3+0x4>

000028a4 <__mulsf3_pse>:
    28a4:	95 9f       	mul	r25, r21
    28a6:	d1 f3       	breq	.-12     	; 0x289c <__mulsf3+0x14>
    28a8:	95 0f       	add	r25, r21
    28aa:	50 e0       	ldi	r21, 0x00	; 0
    28ac:	55 1f       	adc	r21, r21
    28ae:	62 9f       	mul	r22, r18
    28b0:	f0 01       	movw	r30, r0
    28b2:	72 9f       	mul	r23, r18
    28b4:	bb 27       	eor	r27, r27
    28b6:	f0 0d       	add	r31, r0
    28b8:	b1 1d       	adc	r27, r1
    28ba:	63 9f       	mul	r22, r19
    28bc:	aa 27       	eor	r26, r26
    28be:	f0 0d       	add	r31, r0
    28c0:	b1 1d       	adc	r27, r1
    28c2:	aa 1f       	adc	r26, r26
    28c4:	64 9f       	mul	r22, r20
    28c6:	66 27       	eor	r22, r22
    28c8:	b0 0d       	add	r27, r0
    28ca:	a1 1d       	adc	r26, r1
    28cc:	66 1f       	adc	r22, r22
    28ce:	82 9f       	mul	r24, r18
    28d0:	22 27       	eor	r18, r18
    28d2:	b0 0d       	add	r27, r0
    28d4:	a1 1d       	adc	r26, r1
    28d6:	62 1f       	adc	r22, r18
    28d8:	73 9f       	mul	r23, r19
    28da:	b0 0d       	add	r27, r0
    28dc:	a1 1d       	adc	r26, r1
    28de:	62 1f       	adc	r22, r18
    28e0:	83 9f       	mul	r24, r19
    28e2:	a0 0d       	add	r26, r0
    28e4:	61 1d       	adc	r22, r1
    28e6:	22 1f       	adc	r18, r18
    28e8:	74 9f       	mul	r23, r20
    28ea:	33 27       	eor	r19, r19
    28ec:	a0 0d       	add	r26, r0
    28ee:	61 1d       	adc	r22, r1
    28f0:	23 1f       	adc	r18, r19
    28f2:	84 9f       	mul	r24, r20
    28f4:	60 0d       	add	r22, r0
    28f6:	21 1d       	adc	r18, r1
    28f8:	82 2f       	mov	r24, r18
    28fa:	76 2f       	mov	r23, r22
    28fc:	6a 2f       	mov	r22, r26
    28fe:	11 24       	eor	r1, r1
    2900:	9f 57       	subi	r25, 0x7F	; 127
    2902:	50 40       	sbci	r21, 0x00	; 0
    2904:	8a f0       	brmi	.+34     	; 0x2928 <__mulsf3_pse+0x84>
    2906:	e1 f0       	breq	.+56     	; 0x2940 <__mulsf3_pse+0x9c>
    2908:	88 23       	and	r24, r24
    290a:	4a f0       	brmi	.+18     	; 0x291e <__mulsf3_pse+0x7a>
    290c:	ee 0f       	add	r30, r30
    290e:	ff 1f       	adc	r31, r31
    2910:	bb 1f       	adc	r27, r27
    2912:	66 1f       	adc	r22, r22
    2914:	77 1f       	adc	r23, r23
    2916:	88 1f       	adc	r24, r24
    2918:	91 50       	subi	r25, 0x01	; 1
    291a:	50 40       	sbci	r21, 0x00	; 0
    291c:	a9 f7       	brne	.-22     	; 0x2908 <__mulsf3_pse+0x64>
    291e:	9e 3f       	cpi	r25, 0xFE	; 254
    2920:	51 05       	cpc	r21, r1
    2922:	70 f0       	brcs	.+28     	; 0x2940 <__mulsf3_pse+0x9c>
    2924:	5c cf       	rjmp	.-328    	; 0x27de <__fp_inf>
    2926:	a6 cf       	rjmp	.-180    	; 0x2874 <__fp_szero>
    2928:	5f 3f       	cpi	r21, 0xFF	; 255
    292a:	ec f3       	brlt	.-6      	; 0x2926 <__mulsf3_pse+0x82>
    292c:	98 3e       	cpi	r25, 0xE8	; 232
    292e:	dc f3       	brlt	.-10     	; 0x2926 <__mulsf3_pse+0x82>
    2930:	86 95       	lsr	r24
    2932:	77 95       	ror	r23
    2934:	67 95       	ror	r22
    2936:	b7 95       	ror	r27
    2938:	f7 95       	ror	r31
    293a:	e7 95       	ror	r30
    293c:	9f 5f       	subi	r25, 0xFF	; 255
    293e:	c1 f7       	brne	.-16     	; 0x2930 <__mulsf3_pse+0x8c>
    2940:	fe 2b       	or	r31, r30
    2942:	88 0f       	add	r24, r24
    2944:	91 1d       	adc	r25, r1
    2946:	96 95       	lsr	r25
    2948:	87 95       	ror	r24
    294a:	97 f9       	bld	r25, 7
    294c:	08 95       	ret

0000294e <__divmodhi4>:
    294e:	97 fb       	bst	r25, 7
    2950:	07 2e       	mov	r0, r23
    2952:	16 f4       	brtc	.+4      	; 0x2958 <__divmodhi4+0xa>
    2954:	00 94       	com	r0
    2956:	06 d0       	rcall	.+12     	; 0x2964 <__divmodhi4_neg1>
    2958:	77 fd       	sbrc	r23, 7
    295a:	08 d0       	rcall	.+16     	; 0x296c <__divmodhi4_neg2>
    295c:	32 d0       	rcall	.+100    	; 0x29c2 <__udivmodhi4>
    295e:	07 fc       	sbrc	r0, 7
    2960:	05 d0       	rcall	.+10     	; 0x296c <__divmodhi4_neg2>
    2962:	3e f4       	brtc	.+14     	; 0x2972 <__divmodhi4_exit>

00002964 <__divmodhi4_neg1>:
    2964:	90 95       	com	r25
    2966:	81 95       	neg	r24
    2968:	9f 4f       	sbci	r25, 0xFF	; 255
    296a:	08 95       	ret

0000296c <__divmodhi4_neg2>:
    296c:	70 95       	com	r23
    296e:	61 95       	neg	r22
    2970:	7f 4f       	sbci	r23, 0xFF	; 255

00002972 <__divmodhi4_exit>:
    2972:	08 95       	ret

00002974 <__tablejump2__>:
    2974:	ee 0f       	add	r30, r30
    2976:	ff 1f       	adc	r31, r31
    2978:	00 24       	eor	r0, r0
    297a:	00 1c       	adc	r0, r0
    297c:	0b be       	out	0x3b, r0	; 59
    297e:	07 90       	elpm	r0, Z+
    2980:	f6 91       	elpm	r31, Z
    2982:	e0 2d       	mov	r30, r0
    2984:	09 94       	ijmp

00002986 <__ashrdi3>:
    2986:	97 fb       	bst	r25, 7
    2988:	10 f8       	bld	r1, 0

0000298a <__lshrdi3>:
    298a:	16 94       	lsr	r1
    298c:	00 08       	sbc	r0, r0
    298e:	0f 93       	push	r16
    2990:	08 30       	cpi	r16, 0x08	; 8
    2992:	98 f0       	brcs	.+38     	; 0x29ba <__lshrdi3+0x30>
    2994:	08 50       	subi	r16, 0x08	; 8
    2996:	23 2f       	mov	r18, r19
    2998:	34 2f       	mov	r19, r20
    299a:	45 2f       	mov	r20, r21
    299c:	56 2f       	mov	r21, r22
    299e:	67 2f       	mov	r22, r23
    29a0:	78 2f       	mov	r23, r24
    29a2:	89 2f       	mov	r24, r25
    29a4:	90 2d       	mov	r25, r0
    29a6:	f4 cf       	rjmp	.-24     	; 0x2990 <__lshrdi3+0x6>
    29a8:	05 94       	asr	r0
    29aa:	97 95       	ror	r25
    29ac:	87 95       	ror	r24
    29ae:	77 95       	ror	r23
    29b0:	67 95       	ror	r22
    29b2:	57 95       	ror	r21
    29b4:	47 95       	ror	r20
    29b6:	37 95       	ror	r19
    29b8:	27 95       	ror	r18
    29ba:	0a 95       	dec	r16
    29bc:	aa f7       	brpl	.-22     	; 0x29a8 <__lshrdi3+0x1e>
    29be:	0f 91       	pop	r16
    29c0:	08 95       	ret

000029c2 <__udivmodhi4>:
    29c2:	aa 1b       	sub	r26, r26
    29c4:	bb 1b       	sub	r27, r27
    29c6:	51 e1       	ldi	r21, 0x11	; 17
    29c8:	07 c0       	rjmp	.+14     	; 0x29d8 <__udivmodhi4_ep>

000029ca <__udivmodhi4_loop>:
    29ca:	aa 1f       	adc	r26, r26
    29cc:	bb 1f       	adc	r27, r27
    29ce:	a6 17       	cp	r26, r22
    29d0:	b7 07       	cpc	r27, r23
    29d2:	10 f0       	brcs	.+4      	; 0x29d8 <__udivmodhi4_ep>
    29d4:	a6 1b       	sub	r26, r22
    29d6:	b7 0b       	sbc	r27, r23

000029d8 <__udivmodhi4_ep>:
    29d8:	88 1f       	adc	r24, r24
    29da:	99 1f       	adc	r25, r25
    29dc:	5a 95       	dec	r21
    29de:	a9 f7       	brne	.-22     	; 0x29ca <__udivmodhi4_loop>
    29e0:	80 95       	com	r24
    29e2:	90 95       	com	r25
    29e4:	bc 01       	movw	r22, r24
    29e6:	cd 01       	movw	r24, r26
    29e8:	08 95       	ret

000029ea <itoa>:
    29ea:	45 32       	cpi	r20, 0x25	; 37
    29ec:	51 05       	cpc	r21, r1
    29ee:	18 f4       	brcc	.+6      	; 0x29f6 <itoa+0xc>
    29f0:	42 30       	cpi	r20, 0x02	; 2
    29f2:	08 f0       	brcs	.+2      	; 0x29f6 <itoa+0xc>
    29f4:	04 c0       	rjmp	.+8      	; 0x29fe <__itoa_ncheck>
    29f6:	fb 01       	movw	r30, r22
    29f8:	10 82       	st	Z, r1
    29fa:	cb 01       	movw	r24, r22
    29fc:	08 95       	ret

000029fe <__itoa_ncheck>:
    29fe:	bb 27       	eor	r27, r27
    2a00:	4a 30       	cpi	r20, 0x0A	; 10
    2a02:	31 f4       	brne	.+12     	; 0x2a10 <__itoa_ncheck+0x12>
    2a04:	99 23       	and	r25, r25
    2a06:	22 f4       	brpl	.+8      	; 0x2a10 <__itoa_ncheck+0x12>
    2a08:	bd e2       	ldi	r27, 0x2D	; 45
    2a0a:	90 95       	com	r25
    2a0c:	81 95       	neg	r24
    2a0e:	9f 4f       	sbci	r25, 0xFF	; 255
    2a10:	01 c0       	rjmp	.+2      	; 0x2a14 <__utoa_common>

00002a12 <__utoa_ncheck>:
    2a12:	bb 27       	eor	r27, r27

00002a14 <__utoa_common>:
    2a14:	fb 01       	movw	r30, r22
    2a16:	55 27       	eor	r21, r21
    2a18:	aa 27       	eor	r26, r26
    2a1a:	88 0f       	add	r24, r24
    2a1c:	99 1f       	adc	r25, r25
    2a1e:	aa 1f       	adc	r26, r26
    2a20:	a4 17       	cp	r26, r20
    2a22:	10 f0       	brcs	.+4      	; 0x2a28 <__utoa_common+0x14>
    2a24:	a4 1b       	sub	r26, r20
    2a26:	83 95       	inc	r24
    2a28:	50 51       	subi	r21, 0x10	; 16
    2a2a:	b9 f7       	brne	.-18     	; 0x2a1a <__utoa_common+0x6>
    2a2c:	a0 5d       	subi	r26, 0xD0	; 208
    2a2e:	aa 33       	cpi	r26, 0x3A	; 58
    2a30:	08 f0       	brcs	.+2      	; 0x2a34 <__utoa_common+0x20>
    2a32:	a9 5d       	subi	r26, 0xD9	; 217
    2a34:	a1 93       	st	Z+, r26
    2a36:	00 97       	sbiw	r24, 0x00	; 0
    2a38:	79 f7       	brne	.-34     	; 0x2a18 <__utoa_common+0x4>
    2a3a:	b1 11       	cpse	r27, r1
    2a3c:	b1 93       	st	Z+, r27
    2a3e:	11 92       	st	Z+, r1
    2a40:	cb 01       	movw	r24, r22
    2a42:	00 c0       	rjmp	.+0      	; 0x2a44 <strrev>

00002a44 <strrev>:
    2a44:	dc 01       	movw	r26, r24
    2a46:	fc 01       	movw	r30, r24
    2a48:	67 2f       	mov	r22, r23
    2a4a:	71 91       	ld	r23, Z+
    2a4c:	77 23       	and	r23, r23
    2a4e:	e1 f7       	brne	.-8      	; 0x2a48 <strrev+0x4>
    2a50:	32 97       	sbiw	r30, 0x02	; 2
    2a52:	04 c0       	rjmp	.+8      	; 0x2a5c <strrev+0x18>
    2a54:	7c 91       	ld	r23, X
    2a56:	6d 93       	st	X+, r22
    2a58:	70 83       	st	Z, r23
    2a5a:	62 91       	ld	r22, -Z
    2a5c:	ae 17       	cp	r26, r30
    2a5e:	bf 07       	cpc	r27, r31
    2a60:	c8 f3       	brcs	.-14     	; 0x2a54 <strrev+0x10>
    2a62:	08 95       	ret

00002a64 <_exit>:
    2a64:	f8 94       	cli

00002a66 <__stop_program>:
    2a66:	ff cf       	rjmp	.-2      	; 0x2a66 <__stop_program>
